                              1 ;--------------------------------------------------------
                              2 ; File Created by SDCC : free open source ANSI-C Compiler
                              3 ; Version 3.1.0 #7066 (Nov 22 2011) (MINGW32)
                              4 ; This file was generated Wed Feb 01 23:23:27 2017
                              5 ;--------------------------------------------------------
                              6 	.module ydrip
                              7 	.optsdcc -mmcs51 --model-medium
                              8 	
                              9 ;--------------------------------------------------------
                             10 ; Public variables in this module
                             11 ;--------------------------------------------------------
                             12 	.globl _main
                             13 	.globl _setADCInputs
                             14 	.globl _get_packet
                             15 	.globl _delayFor
                             16 	.globl _WaitForPacket
                             17 	.globl _strobe_radio
                             18 	.globl _swap_channel
                             19 	.globl _printfUSB
                             20 	.globl _goToSleep
                             21 	.globl _killWithWatchdog
                             22 	.globl _reset_offsets
                             23 	.globl _makeAllOutputsLow
                             24 	.globl _makeAllOutputs
                             25 	.globl _print_packet
                             26 	.globl _ESPsleep
                             27 	.globl _getTimeBytes
                             28 	.globl _wifiConnect
                             29 	.globl _wifiFlash
                             30 	.globl _getWifiStatus
                             31 	.globl _enableESP
                             32 	.globl _sendAT
                             33 	.globl _getESPString
                             34 	.globl _initUart1
                             35 	.globl _doServices
                             36 	.globl _clearRxErrors
                             37 	.globl _dexcom_src_to_ascii
                             38 	.globl _dex_num_decoder
                             39 	.globl _bit_reverse_bytes
                             40 	.globl _min8
                             41 	.globl _bit_reverse_byte
                             42 	.globl _getPacketPassedChecksum
                             43 	.globl _blink_red_led
                             44 	.globl _blink_yellow_led
                             45 	.globl _uartDisable
                             46 	.globl _uartEnable
                             47 	.globl _switchToRCOSC
                             48 	.globl _ISR_ST
                             49 	.globl _sleepInit
                             50 	.globl _AES128_CBC_encrypt_buffer
                             51 	.globl _adcSetMillivoltCalibration
                             52 	.globl _adcReadVddMillivolts
                             53 	.globl _strlen
                             54 	.globl _memset
                             55 	.globl _strstr
                             56 	.globl _strcmp
                             57 	.globl _strcat
                             58 	.globl _strcpy
                             59 	.globl _memcpy
                             60 	.globl _sprintf
                             61 	.globl _printf
                             62 	.globl _uart1RxReceiveByte
                             63 	.globl _uart1RxAvailable
                             64 	.globl _uart1TxSendByte
                             65 	.globl _uart1TxAvailable
                             66 	.globl _uart1SetBaudRate
                             67 	.globl _uart1Init
                             68 	.globl _setDigitalInput
                             69 	.globl _setDigitalOutput
                             70 	.globl _radioQueueRxDoneWithPacket
                             71 	.globl _radioQueueRxCurrentPacket
                             72 	.globl _radioQueueInit
                             73 	.globl _radioMacResume
                             74 	.globl _radioMacSleep
                             75 	.globl _radioMacStrobe
                             76 	.globl _radioMacInit
                             77 	.globl _radioCrcPassed
                             78 	.globl _usbComTxSendByte
                             79 	.globl _usbComTxAvailable
                             80 	.globl _usbComService
                             81 	.globl _usbShowStatusWithGreenLed
                             82 	.globl _delayMs
                             83 	.globl _getMs
                             84 	.globl _disableUsbPullup
                             85 	.globl _enableUsbPullup
                             86 	.globl _usbPowerPresent
                             87 	.globl _boardService
                             88 	.globl _boardClockInit
                             89 	.globl _systemInit
                             90 	.globl _SrcNameTable
                             91 	.globl _AT_TIMEOUT
                             92 	.globl _dmaDesc
                             93 	.globl _PM2_BUF
                             94 	.globl _wixFone_ID
                             95 	.globl _WaitForPacket_PARM_3
                             96 	.globl _swap_channel_PARM_2
                             97 	.globl _dexcom_src_to_ascii_PARM_2
                             98 	.globl _WaitForPacket_PARM_2
                             99 	.globl _bit_reverse_bytes_PARM_2
                            100 	.globl _min8_PARM_2
                            101 	.globl _intMaxStrLen
                            102 	.globl _sequential_missed_packets
                            103 	.globl _usbEnabled
                            104 	.globl _needsTimingCalibration
                            105 	.globl _getSrcValue
                            106 	.globl _putchar
                            107 ;--------------------------------------------------------
                            108 ; special function registers
                            109 ;--------------------------------------------------------
                            110 	.area RSEG    (ABS,DATA)
   0000                     111 	.org 0x0000
                    0080    112 Fydrip$P0$0$0 == 0x0080
                    0080    113 _P0	=	0x0080
                    0081    114 Fydrip$SP$0$0 == 0x0081
                    0081    115 _SP	=	0x0081
                    0082    116 Fydrip$DPL0$0$0 == 0x0082
                    0082    117 _DPL0	=	0x0082
                    0083    118 Fydrip$DPH0$0$0 == 0x0083
                    0083    119 _DPH0	=	0x0083
                    0084    120 Fydrip$DPL1$0$0 == 0x0084
                    0084    121 _DPL1	=	0x0084
                    0085    122 Fydrip$DPH1$0$0 == 0x0085
                    0085    123 _DPH1	=	0x0085
                    0086    124 Fydrip$U0CSR$0$0 == 0x0086
                    0086    125 _U0CSR	=	0x0086
                    0087    126 Fydrip$PCON$0$0 == 0x0087
                    0087    127 _PCON	=	0x0087
                    0088    128 Fydrip$TCON$0$0 == 0x0088
                    0088    129 _TCON	=	0x0088
                    0089    130 Fydrip$P0IFG$0$0 == 0x0089
                    0089    131 _P0IFG	=	0x0089
                    008A    132 Fydrip$P1IFG$0$0 == 0x008a
                    008A    133 _P1IFG	=	0x008a
                    008B    134 Fydrip$P2IFG$0$0 == 0x008b
                    008B    135 _P2IFG	=	0x008b
                    008C    136 Fydrip$PICTL$0$0 == 0x008c
                    008C    137 _PICTL	=	0x008c
                    008D    138 Fydrip$P1IEN$0$0 == 0x008d
                    008D    139 _P1IEN	=	0x008d
                    008F    140 Fydrip$P0INP$0$0 == 0x008f
                    008F    141 _P0INP	=	0x008f
                    0090    142 Fydrip$P1$0$0 == 0x0090
                    0090    143 _P1	=	0x0090
                    0091    144 Fydrip$RFIM$0$0 == 0x0091
                    0091    145 _RFIM	=	0x0091
                    0092    146 Fydrip$DPS$0$0 == 0x0092
                    0092    147 _DPS	=	0x0092
                    0093    148 Fydrip$MPAGE$0$0 == 0x0093
                    0093    149 _MPAGE	=	0x0093
                    0095    150 Fydrip$ENDIAN$0$0 == 0x0095
                    0095    151 _ENDIAN	=	0x0095
                    0098    152 Fydrip$S0CON$0$0 == 0x0098
                    0098    153 _S0CON	=	0x0098
                    009A    154 Fydrip$IEN2$0$0 == 0x009a
                    009A    155 _IEN2	=	0x009a
                    009B    156 Fydrip$S1CON$0$0 == 0x009b
                    009B    157 _S1CON	=	0x009b
                    009C    158 Fydrip$T2CT$0$0 == 0x009c
                    009C    159 _T2CT	=	0x009c
                    009D    160 Fydrip$T2PR$0$0 == 0x009d
                    009D    161 _T2PR	=	0x009d
                    009E    162 Fydrip$T2CTL$0$0 == 0x009e
                    009E    163 _T2CTL	=	0x009e
                    00A0    164 Fydrip$P2$0$0 == 0x00a0
                    00A0    165 _P2	=	0x00a0
                    00A1    166 Fydrip$WORIRQ$0$0 == 0x00a1
                    00A1    167 _WORIRQ	=	0x00a1
                    00A2    168 Fydrip$WORCTRL$0$0 == 0x00a2
                    00A2    169 _WORCTRL	=	0x00a2
                    00A3    170 Fydrip$WOREVT0$0$0 == 0x00a3
                    00A3    171 _WOREVT0	=	0x00a3
                    00A4    172 Fydrip$WOREVT1$0$0 == 0x00a4
                    00A4    173 _WOREVT1	=	0x00a4
                    00A5    174 Fydrip$WORTIME0$0$0 == 0x00a5
                    00A5    175 _WORTIME0	=	0x00a5
                    00A6    176 Fydrip$WORTIME1$0$0 == 0x00a6
                    00A6    177 _WORTIME1	=	0x00a6
                    00A8    178 Fydrip$IEN0$0$0 == 0x00a8
                    00A8    179 _IEN0	=	0x00a8
                    00A9    180 Fydrip$IP0$0$0 == 0x00a9
                    00A9    181 _IP0	=	0x00a9
                    00AB    182 Fydrip$FWT$0$0 == 0x00ab
                    00AB    183 _FWT	=	0x00ab
                    00AC    184 Fydrip$FADDRL$0$0 == 0x00ac
                    00AC    185 _FADDRL	=	0x00ac
                    00AD    186 Fydrip$FADDRH$0$0 == 0x00ad
                    00AD    187 _FADDRH	=	0x00ad
                    00AE    188 Fydrip$FCTL$0$0 == 0x00ae
                    00AE    189 _FCTL	=	0x00ae
                    00AF    190 Fydrip$FWDATA$0$0 == 0x00af
                    00AF    191 _FWDATA	=	0x00af
                    00B1    192 Fydrip$ENCDI$0$0 == 0x00b1
                    00B1    193 _ENCDI	=	0x00b1
                    00B2    194 Fydrip$ENCDO$0$0 == 0x00b2
                    00B2    195 _ENCDO	=	0x00b2
                    00B3    196 Fydrip$ENCCS$0$0 == 0x00b3
                    00B3    197 _ENCCS	=	0x00b3
                    00B4    198 Fydrip$ADCCON1$0$0 == 0x00b4
                    00B4    199 _ADCCON1	=	0x00b4
                    00B5    200 Fydrip$ADCCON2$0$0 == 0x00b5
                    00B5    201 _ADCCON2	=	0x00b5
                    00B6    202 Fydrip$ADCCON3$0$0 == 0x00b6
                    00B6    203 _ADCCON3	=	0x00b6
                    00B8    204 Fydrip$IEN1$0$0 == 0x00b8
                    00B8    205 _IEN1	=	0x00b8
                    00B9    206 Fydrip$IP1$0$0 == 0x00b9
                    00B9    207 _IP1	=	0x00b9
                    00BA    208 Fydrip$ADCL$0$0 == 0x00ba
                    00BA    209 _ADCL	=	0x00ba
                    00BB    210 Fydrip$ADCH$0$0 == 0x00bb
                    00BB    211 _ADCH	=	0x00bb
                    00BC    212 Fydrip$RNDL$0$0 == 0x00bc
                    00BC    213 _RNDL	=	0x00bc
                    00BD    214 Fydrip$RNDH$0$0 == 0x00bd
                    00BD    215 _RNDH	=	0x00bd
                    00BE    216 Fydrip$SLEEP$0$0 == 0x00be
                    00BE    217 _SLEEP	=	0x00be
                    00C0    218 Fydrip$IRCON$0$0 == 0x00c0
                    00C0    219 _IRCON	=	0x00c0
                    00C1    220 Fydrip$U0DBUF$0$0 == 0x00c1
                    00C1    221 _U0DBUF	=	0x00c1
                    00C2    222 Fydrip$U0BAUD$0$0 == 0x00c2
                    00C2    223 _U0BAUD	=	0x00c2
                    00C4    224 Fydrip$U0UCR$0$0 == 0x00c4
                    00C4    225 _U0UCR	=	0x00c4
                    00C5    226 Fydrip$U0GCR$0$0 == 0x00c5
                    00C5    227 _U0GCR	=	0x00c5
                    00C6    228 Fydrip$CLKCON$0$0 == 0x00c6
                    00C6    229 _CLKCON	=	0x00c6
                    00C7    230 Fydrip$MEMCTR$0$0 == 0x00c7
                    00C7    231 _MEMCTR	=	0x00c7
                    00C9    232 Fydrip$WDCTL$0$0 == 0x00c9
                    00C9    233 _WDCTL	=	0x00c9
                    00CA    234 Fydrip$T3CNT$0$0 == 0x00ca
                    00CA    235 _T3CNT	=	0x00ca
                    00CB    236 Fydrip$T3CTL$0$0 == 0x00cb
                    00CB    237 _T3CTL	=	0x00cb
                    00CC    238 Fydrip$T3CCTL0$0$0 == 0x00cc
                    00CC    239 _T3CCTL0	=	0x00cc
                    00CD    240 Fydrip$T3CC0$0$0 == 0x00cd
                    00CD    241 _T3CC0	=	0x00cd
                    00CE    242 Fydrip$T3CCTL1$0$0 == 0x00ce
                    00CE    243 _T3CCTL1	=	0x00ce
                    00CF    244 Fydrip$T3CC1$0$0 == 0x00cf
                    00CF    245 _T3CC1	=	0x00cf
                    00D0    246 Fydrip$PSW$0$0 == 0x00d0
                    00D0    247 _PSW	=	0x00d0
                    00D1    248 Fydrip$DMAIRQ$0$0 == 0x00d1
                    00D1    249 _DMAIRQ	=	0x00d1
                    00D2    250 Fydrip$DMA1CFGL$0$0 == 0x00d2
                    00D2    251 _DMA1CFGL	=	0x00d2
                    00D3    252 Fydrip$DMA1CFGH$0$0 == 0x00d3
                    00D3    253 _DMA1CFGH	=	0x00d3
                    00D4    254 Fydrip$DMA0CFGL$0$0 == 0x00d4
                    00D4    255 _DMA0CFGL	=	0x00d4
                    00D5    256 Fydrip$DMA0CFGH$0$0 == 0x00d5
                    00D5    257 _DMA0CFGH	=	0x00d5
                    00D6    258 Fydrip$DMAARM$0$0 == 0x00d6
                    00D6    259 _DMAARM	=	0x00d6
                    00D7    260 Fydrip$DMAREQ$0$0 == 0x00d7
                    00D7    261 _DMAREQ	=	0x00d7
                    00D8    262 Fydrip$TIMIF$0$0 == 0x00d8
                    00D8    263 _TIMIF	=	0x00d8
                    00D9    264 Fydrip$RFD$0$0 == 0x00d9
                    00D9    265 _RFD	=	0x00d9
                    00DA    266 Fydrip$T1CC0L$0$0 == 0x00da
                    00DA    267 _T1CC0L	=	0x00da
                    00DB    268 Fydrip$T1CC0H$0$0 == 0x00db
                    00DB    269 _T1CC0H	=	0x00db
                    00DC    270 Fydrip$T1CC1L$0$0 == 0x00dc
                    00DC    271 _T1CC1L	=	0x00dc
                    00DD    272 Fydrip$T1CC1H$0$0 == 0x00dd
                    00DD    273 _T1CC1H	=	0x00dd
                    00DE    274 Fydrip$T1CC2L$0$0 == 0x00de
                    00DE    275 _T1CC2L	=	0x00de
                    00DF    276 Fydrip$T1CC2H$0$0 == 0x00df
                    00DF    277 _T1CC2H	=	0x00df
                    00E0    278 Fydrip$ACC$0$0 == 0x00e0
                    00E0    279 _ACC	=	0x00e0
                    00E1    280 Fydrip$RFST$0$0 == 0x00e1
                    00E1    281 _RFST	=	0x00e1
                    00E2    282 Fydrip$T1CNTL$0$0 == 0x00e2
                    00E2    283 _T1CNTL	=	0x00e2
                    00E3    284 Fydrip$T1CNTH$0$0 == 0x00e3
                    00E3    285 _T1CNTH	=	0x00e3
                    00E4    286 Fydrip$T1CTL$0$0 == 0x00e4
                    00E4    287 _T1CTL	=	0x00e4
                    00E5    288 Fydrip$T1CCTL0$0$0 == 0x00e5
                    00E5    289 _T1CCTL0	=	0x00e5
                    00E6    290 Fydrip$T1CCTL1$0$0 == 0x00e6
                    00E6    291 _T1CCTL1	=	0x00e6
                    00E7    292 Fydrip$T1CCTL2$0$0 == 0x00e7
                    00E7    293 _T1CCTL2	=	0x00e7
                    00E8    294 Fydrip$IRCON2$0$0 == 0x00e8
                    00E8    295 _IRCON2	=	0x00e8
                    00E9    296 Fydrip$RFIF$0$0 == 0x00e9
                    00E9    297 _RFIF	=	0x00e9
                    00EA    298 Fydrip$T4CNT$0$0 == 0x00ea
                    00EA    299 _T4CNT	=	0x00ea
                    00EB    300 Fydrip$T4CTL$0$0 == 0x00eb
                    00EB    301 _T4CTL	=	0x00eb
                    00EC    302 Fydrip$T4CCTL0$0$0 == 0x00ec
                    00EC    303 _T4CCTL0	=	0x00ec
                    00ED    304 Fydrip$T4CC0$0$0 == 0x00ed
                    00ED    305 _T4CC0	=	0x00ed
                    00EE    306 Fydrip$T4CCTL1$0$0 == 0x00ee
                    00EE    307 _T4CCTL1	=	0x00ee
                    00EF    308 Fydrip$T4CC1$0$0 == 0x00ef
                    00EF    309 _T4CC1	=	0x00ef
                    00F0    310 Fydrip$B$0$0 == 0x00f0
                    00F0    311 _B	=	0x00f0
                    00F1    312 Fydrip$PERCFG$0$0 == 0x00f1
                    00F1    313 _PERCFG	=	0x00f1
                    00F2    314 Fydrip$ADCCFG$0$0 == 0x00f2
                    00F2    315 _ADCCFG	=	0x00f2
                    00F3    316 Fydrip$P0SEL$0$0 == 0x00f3
                    00F3    317 _P0SEL	=	0x00f3
                    00F4    318 Fydrip$P1SEL$0$0 == 0x00f4
                    00F4    319 _P1SEL	=	0x00f4
                    00F5    320 Fydrip$P2SEL$0$0 == 0x00f5
                    00F5    321 _P2SEL	=	0x00f5
                    00F6    322 Fydrip$P1INP$0$0 == 0x00f6
                    00F6    323 _P1INP	=	0x00f6
                    00F7    324 Fydrip$P2INP$0$0 == 0x00f7
                    00F7    325 _P2INP	=	0x00f7
                    00F8    326 Fydrip$U1CSR$0$0 == 0x00f8
                    00F8    327 _U1CSR	=	0x00f8
                    00F9    328 Fydrip$U1DBUF$0$0 == 0x00f9
                    00F9    329 _U1DBUF	=	0x00f9
                    00FA    330 Fydrip$U1BAUD$0$0 == 0x00fa
                    00FA    331 _U1BAUD	=	0x00fa
                    00FB    332 Fydrip$U1UCR$0$0 == 0x00fb
                    00FB    333 _U1UCR	=	0x00fb
                    00FC    334 Fydrip$U1GCR$0$0 == 0x00fc
                    00FC    335 _U1GCR	=	0x00fc
                    00FD    336 Fydrip$P0DIR$0$0 == 0x00fd
                    00FD    337 _P0DIR	=	0x00fd
                    00FE    338 Fydrip$P1DIR$0$0 == 0x00fe
                    00FE    339 _P1DIR	=	0x00fe
                    00FF    340 Fydrip$P2DIR$0$0 == 0x00ff
                    00FF    341 _P2DIR	=	0x00ff
                    FFFFD5D4    342 Fydrip$DMA0CFG$0$0 == 0xffffd5d4
                    FFFFD5D4    343 _DMA0CFG	=	0xffffd5d4
                    FFFFD3D2    344 Fydrip$DMA1CFG$0$0 == 0xffffd3d2
                    FFFFD3D2    345 _DMA1CFG	=	0xffffd3d2
                    FFFFADAC    346 Fydrip$FADDR$0$0 == 0xffffadac
                    FFFFADAC    347 _FADDR	=	0xffffadac
                    FFFFBBBA    348 Fydrip$ADC$0$0 == 0xffffbbba
                    FFFFBBBA    349 _ADC	=	0xffffbbba
                    FFFFDBDA    350 Fydrip$T1CC0$0$0 == 0xffffdbda
                    FFFFDBDA    351 _T1CC0	=	0xffffdbda
                    FFFFDDDC    352 Fydrip$T1CC1$0$0 == 0xffffdddc
                    FFFFDDDC    353 _T1CC1	=	0xffffdddc
                    FFFFDFDE    354 Fydrip$T1CC2$0$0 == 0xffffdfde
                    FFFFDFDE    355 _T1CC2	=	0xffffdfde
                            356 ;--------------------------------------------------------
                            357 ; special function bits
                            358 ;--------------------------------------------------------
                            359 	.area RSEG    (ABS,DATA)
   0000                     360 	.org 0x0000
                    0080    361 Fydrip$P0_0$0$0 == 0x0080
                    0080    362 _P0_0	=	0x0080
                    0081    363 Fydrip$P0_1$0$0 == 0x0081
                    0081    364 _P0_1	=	0x0081
                    0082    365 Fydrip$P0_2$0$0 == 0x0082
                    0082    366 _P0_2	=	0x0082
                    0083    367 Fydrip$P0_3$0$0 == 0x0083
                    0083    368 _P0_3	=	0x0083
                    0084    369 Fydrip$P0_4$0$0 == 0x0084
                    0084    370 _P0_4	=	0x0084
                    0085    371 Fydrip$P0_5$0$0 == 0x0085
                    0085    372 _P0_5	=	0x0085
                    0086    373 Fydrip$P0_6$0$0 == 0x0086
                    0086    374 _P0_6	=	0x0086
                    0087    375 Fydrip$P0_7$0$0 == 0x0087
                    0087    376 _P0_7	=	0x0087
                    0088    377 Fydrip$_TCON_0$0$0 == 0x0088
                    0088    378 __TCON_0	=	0x0088
                    0089    379 Fydrip$RFTXRXIF$0$0 == 0x0089
                    0089    380 _RFTXRXIF	=	0x0089
                    008A    381 Fydrip$_TCON_2$0$0 == 0x008a
                    008A    382 __TCON_2	=	0x008a
                    008B    383 Fydrip$URX0IF$0$0 == 0x008b
                    008B    384 _URX0IF	=	0x008b
                    008C    385 Fydrip$_TCON_4$0$0 == 0x008c
                    008C    386 __TCON_4	=	0x008c
                    008D    387 Fydrip$ADCIF$0$0 == 0x008d
                    008D    388 _ADCIF	=	0x008d
                    008E    389 Fydrip$_TCON_6$0$0 == 0x008e
                    008E    390 __TCON_6	=	0x008e
                    008F    391 Fydrip$URX1IF$0$0 == 0x008f
                    008F    392 _URX1IF	=	0x008f
                    0090    393 Fydrip$P1_0$0$0 == 0x0090
                    0090    394 _P1_0	=	0x0090
                    0091    395 Fydrip$P1_1$0$0 == 0x0091
                    0091    396 _P1_1	=	0x0091
                    0092    397 Fydrip$P1_2$0$0 == 0x0092
                    0092    398 _P1_2	=	0x0092
                    0093    399 Fydrip$P1_3$0$0 == 0x0093
                    0093    400 _P1_3	=	0x0093
                    0094    401 Fydrip$P1_4$0$0 == 0x0094
                    0094    402 _P1_4	=	0x0094
                    0095    403 Fydrip$P1_5$0$0 == 0x0095
                    0095    404 _P1_5	=	0x0095
                    0096    405 Fydrip$P1_6$0$0 == 0x0096
                    0096    406 _P1_6	=	0x0096
                    0097    407 Fydrip$P1_7$0$0 == 0x0097
                    0097    408 _P1_7	=	0x0097
                    0098    409 Fydrip$ENCIF_0$0$0 == 0x0098
                    0098    410 _ENCIF_0	=	0x0098
                    0099    411 Fydrip$ENCIF_1$0$0 == 0x0099
                    0099    412 _ENCIF_1	=	0x0099
                    009A    413 Fydrip$_SOCON2$0$0 == 0x009a
                    009A    414 __SOCON2	=	0x009a
                    009B    415 Fydrip$_SOCON3$0$0 == 0x009b
                    009B    416 __SOCON3	=	0x009b
                    009C    417 Fydrip$_SOCON4$0$0 == 0x009c
                    009C    418 __SOCON4	=	0x009c
                    009D    419 Fydrip$_SOCON5$0$0 == 0x009d
                    009D    420 __SOCON5	=	0x009d
                    009E    421 Fydrip$_SOCON6$0$0 == 0x009e
                    009E    422 __SOCON6	=	0x009e
                    009F    423 Fydrip$_SOCON7$0$0 == 0x009f
                    009F    424 __SOCON7	=	0x009f
                    00A0    425 Fydrip$P2_0$0$0 == 0x00a0
                    00A0    426 _P2_0	=	0x00a0
                    00A1    427 Fydrip$P2_1$0$0 == 0x00a1
                    00A1    428 _P2_1	=	0x00a1
                    00A2    429 Fydrip$P2_2$0$0 == 0x00a2
                    00A2    430 _P2_2	=	0x00a2
                    00A3    431 Fydrip$P2_3$0$0 == 0x00a3
                    00A3    432 _P2_3	=	0x00a3
                    00A4    433 Fydrip$P2_4$0$0 == 0x00a4
                    00A4    434 _P2_4	=	0x00a4
                    00A5    435 Fydrip$P2_5$0$0 == 0x00a5
                    00A5    436 _P2_5	=	0x00a5
                    00A6    437 Fydrip$P2_6$0$0 == 0x00a6
                    00A6    438 _P2_6	=	0x00a6
                    00A7    439 Fydrip$P2_7$0$0 == 0x00a7
                    00A7    440 _P2_7	=	0x00a7
                    00A8    441 Fydrip$RFTXRXIE$0$0 == 0x00a8
                    00A8    442 _RFTXRXIE	=	0x00a8
                    00A9    443 Fydrip$ADCIE$0$0 == 0x00a9
                    00A9    444 _ADCIE	=	0x00a9
                    00AA    445 Fydrip$URX0IE$0$0 == 0x00aa
                    00AA    446 _URX0IE	=	0x00aa
                    00AB    447 Fydrip$URX1IE$0$0 == 0x00ab
                    00AB    448 _URX1IE	=	0x00ab
                    00AC    449 Fydrip$ENCIE$0$0 == 0x00ac
                    00AC    450 _ENCIE	=	0x00ac
                    00AD    451 Fydrip$STIE$0$0 == 0x00ad
                    00AD    452 _STIE	=	0x00ad
                    00AE    453 Fydrip$_IEN06$0$0 == 0x00ae
                    00AE    454 __IEN06	=	0x00ae
                    00AF    455 Fydrip$EA$0$0 == 0x00af
                    00AF    456 _EA	=	0x00af
                    00B8    457 Fydrip$DMAIE$0$0 == 0x00b8
                    00B8    458 _DMAIE	=	0x00b8
                    00B9    459 Fydrip$T1IE$0$0 == 0x00b9
                    00B9    460 _T1IE	=	0x00b9
                    00BA    461 Fydrip$T2IE$0$0 == 0x00ba
                    00BA    462 _T2IE	=	0x00ba
                    00BB    463 Fydrip$T3IE$0$0 == 0x00bb
                    00BB    464 _T3IE	=	0x00bb
                    00BC    465 Fydrip$T4IE$0$0 == 0x00bc
                    00BC    466 _T4IE	=	0x00bc
                    00BD    467 Fydrip$P0IE$0$0 == 0x00bd
                    00BD    468 _P0IE	=	0x00bd
                    00BE    469 Fydrip$_IEN16$0$0 == 0x00be
                    00BE    470 __IEN16	=	0x00be
                    00BF    471 Fydrip$_IEN17$0$0 == 0x00bf
                    00BF    472 __IEN17	=	0x00bf
                    00C0    473 Fydrip$DMAIF$0$0 == 0x00c0
                    00C0    474 _DMAIF	=	0x00c0
                    00C1    475 Fydrip$T1IF$0$0 == 0x00c1
                    00C1    476 _T1IF	=	0x00c1
                    00C2    477 Fydrip$T2IF$0$0 == 0x00c2
                    00C2    478 _T2IF	=	0x00c2
                    00C3    479 Fydrip$T3IF$0$0 == 0x00c3
                    00C3    480 _T3IF	=	0x00c3
                    00C4    481 Fydrip$T4IF$0$0 == 0x00c4
                    00C4    482 _T4IF	=	0x00c4
                    00C5    483 Fydrip$P0IF$0$0 == 0x00c5
                    00C5    484 _P0IF	=	0x00c5
                    00C6    485 Fydrip$_IRCON6$0$0 == 0x00c6
                    00C6    486 __IRCON6	=	0x00c6
                    00C7    487 Fydrip$STIF$0$0 == 0x00c7
                    00C7    488 _STIF	=	0x00c7
                    00D0    489 Fydrip$P$0$0 == 0x00d0
                    00D0    490 _P	=	0x00d0
                    00D1    491 Fydrip$F1$0$0 == 0x00d1
                    00D1    492 _F1	=	0x00d1
                    00D2    493 Fydrip$OV$0$0 == 0x00d2
                    00D2    494 _OV	=	0x00d2
                    00D3    495 Fydrip$RS0$0$0 == 0x00d3
                    00D3    496 _RS0	=	0x00d3
                    00D4    497 Fydrip$RS1$0$0 == 0x00d4
                    00D4    498 _RS1	=	0x00d4
                    00D5    499 Fydrip$F0$0$0 == 0x00d5
                    00D5    500 _F0	=	0x00d5
                    00D6    501 Fydrip$AC$0$0 == 0x00d6
                    00D6    502 _AC	=	0x00d6
                    00D7    503 Fydrip$CY$0$0 == 0x00d7
                    00D7    504 _CY	=	0x00d7
                    00D8    505 Fydrip$T3OVFIF$0$0 == 0x00d8
                    00D8    506 _T3OVFIF	=	0x00d8
                    00D9    507 Fydrip$T3CH0IF$0$0 == 0x00d9
                    00D9    508 _T3CH0IF	=	0x00d9
                    00DA    509 Fydrip$T3CH1IF$0$0 == 0x00da
                    00DA    510 _T3CH1IF	=	0x00da
                    00DB    511 Fydrip$T4OVFIF$0$0 == 0x00db
                    00DB    512 _T4OVFIF	=	0x00db
                    00DC    513 Fydrip$T4CH0IF$0$0 == 0x00dc
                    00DC    514 _T4CH0IF	=	0x00dc
                    00DD    515 Fydrip$T4CH1IF$0$0 == 0x00dd
                    00DD    516 _T4CH1IF	=	0x00dd
                    00DE    517 Fydrip$OVFIM$0$0 == 0x00de
                    00DE    518 _OVFIM	=	0x00de
                    00DF    519 Fydrip$_TIMIF7$0$0 == 0x00df
                    00DF    520 __TIMIF7	=	0x00df
                    00E0    521 Fydrip$ACC_0$0$0 == 0x00e0
                    00E0    522 _ACC_0	=	0x00e0
                    00E1    523 Fydrip$ACC_1$0$0 == 0x00e1
                    00E1    524 _ACC_1	=	0x00e1
                    00E2    525 Fydrip$ACC_2$0$0 == 0x00e2
                    00E2    526 _ACC_2	=	0x00e2
                    00E3    527 Fydrip$ACC_3$0$0 == 0x00e3
                    00E3    528 _ACC_3	=	0x00e3
                    00E4    529 Fydrip$ACC_4$0$0 == 0x00e4
                    00E4    530 _ACC_4	=	0x00e4
                    00E5    531 Fydrip$ACC_5$0$0 == 0x00e5
                    00E5    532 _ACC_5	=	0x00e5
                    00E6    533 Fydrip$ACC_6$0$0 == 0x00e6
                    00E6    534 _ACC_6	=	0x00e6
                    00E7    535 Fydrip$ACC_7$0$0 == 0x00e7
                    00E7    536 _ACC_7	=	0x00e7
                    00E8    537 Fydrip$P2IF$0$0 == 0x00e8
                    00E8    538 _P2IF	=	0x00e8
                    00E9    539 Fydrip$UTX0IF$0$0 == 0x00e9
                    00E9    540 _UTX0IF	=	0x00e9
                    00EA    541 Fydrip$UTX1IF$0$0 == 0x00ea
                    00EA    542 _UTX1IF	=	0x00ea
                    00EB    543 Fydrip$P1IF$0$0 == 0x00eb
                    00EB    544 _P1IF	=	0x00eb
                    00EC    545 Fydrip$WDTIF$0$0 == 0x00ec
                    00EC    546 _WDTIF	=	0x00ec
                    00ED    547 Fydrip$_IRCON25$0$0 == 0x00ed
                    00ED    548 __IRCON25	=	0x00ed
                    00EE    549 Fydrip$_IRCON26$0$0 == 0x00ee
                    00EE    550 __IRCON26	=	0x00ee
                    00EF    551 Fydrip$_IRCON27$0$0 == 0x00ef
                    00EF    552 __IRCON27	=	0x00ef
                    00F0    553 Fydrip$B_0$0$0 == 0x00f0
                    00F0    554 _B_0	=	0x00f0
                    00F1    555 Fydrip$B_1$0$0 == 0x00f1
                    00F1    556 _B_1	=	0x00f1
                    00F2    557 Fydrip$B_2$0$0 == 0x00f2
                    00F2    558 _B_2	=	0x00f2
                    00F3    559 Fydrip$B_3$0$0 == 0x00f3
                    00F3    560 _B_3	=	0x00f3
                    00F4    561 Fydrip$B_4$0$0 == 0x00f4
                    00F4    562 _B_4	=	0x00f4
                    00F5    563 Fydrip$B_5$0$0 == 0x00f5
                    00F5    564 _B_5	=	0x00f5
                    00F6    565 Fydrip$B_6$0$0 == 0x00f6
                    00F6    566 _B_6	=	0x00f6
                    00F7    567 Fydrip$B_7$0$0 == 0x00f7
                    00F7    568 _B_7	=	0x00f7
                    00F8    569 Fydrip$U1ACTIVE$0$0 == 0x00f8
                    00F8    570 _U1ACTIVE	=	0x00f8
                    00F9    571 Fydrip$U1TX_BYTE$0$0 == 0x00f9
                    00F9    572 _U1TX_BYTE	=	0x00f9
                    00FA    573 Fydrip$U1RX_BYTE$0$0 == 0x00fa
                    00FA    574 _U1RX_BYTE	=	0x00fa
                    00FB    575 Fydrip$U1ERR$0$0 == 0x00fb
                    00FB    576 _U1ERR	=	0x00fb
                    00FC    577 Fydrip$U1FE$0$0 == 0x00fc
                    00FC    578 _U1FE	=	0x00fc
                    00FD    579 Fydrip$U1SLAVE$0$0 == 0x00fd
                    00FD    580 _U1SLAVE	=	0x00fd
                    00FE    581 Fydrip$U1RE$0$0 == 0x00fe
                    00FE    582 _U1RE	=	0x00fe
                    00FF    583 Fydrip$U1MODE$0$0 == 0x00ff
                    00FF    584 _U1MODE	=	0x00ff
                            585 ;--------------------------------------------------------
                            586 ; overlayable register banks
                            587 ;--------------------------------------------------------
                            588 	.area REG_BANK_0	(REL,OVR,DATA)
   0000                     589 	.ds 8
                            590 	.area REG_BANK_1	(REL,OVR,DATA)
   0008                     591 	.ds 8
                            592 ;--------------------------------------------------------
                            593 ; overlayable bit register bank
                            594 ;--------------------------------------------------------
                            595 	.area BIT_BANK	(REL,OVR,DATA)
   0025                     596 bits:
   0025                     597 	.ds 1
                    8000    598 	b0 = bits[0]
                    8100    599 	b1 = bits[1]
                    8200    600 	b2 = bits[2]
                    8300    601 	b3 = bits[3]
                    8400    602 	b4 = bits[4]
                    8500    603 	b5 = bits[5]
                    8600    604 	b6 = bits[6]
                    8700    605 	b7 = bits[7]
                            606 ;--------------------------------------------------------
                            607 ; internal ram data
                            608 ;--------------------------------------------------------
                            609 	.area DSEG    (DATA)
                    0000    610 Lydrip.print_packet$sloc0$1$0==.
   0026                     611 _print_packet_sloc0_1_0:
   0026                     612 	.ds 2
                    0002    613 Lydrip.print_packet$sloc1$1$0==.
   0028                     614 _print_packet_sloc1_1_0:
   0028                     615 	.ds 2
                    0004    616 Lydrip.print_packet$sloc2$1$0==.
   002A                     617 _print_packet_sloc2_1_0:
   002A                     618 	.ds 4
                    0008    619 Lydrip.goToSleep$sloc0$1$0==.
   002E                     620 _goToSleep_sloc0_1_0:
   002E                     621 	.ds 2
                    000A    622 Lydrip.goToSleep$sloc1$1$0==.
   0030                     623 _goToSleep_sloc1_1_0:
   0030                     624 	.ds 4
                    000E    625 Lydrip.WaitForPacket$sloc0$1$0==.
   0034                     626 _WaitForPacket_sloc0_1_0:
   0034                     627 	.ds 1
                    000F    628 Lydrip.WaitForPacket$sloc1$1$0==.
   0035                     629 _WaitForPacket_sloc1_1_0:
   0035                     630 	.ds 4
                    0013    631 Lydrip.WaitForPacket$sloc2$1$0==.
   0039                     632 _WaitForPacket_sloc2_1_0:
   0039                     633 	.ds 2
                    0015    634 Lydrip.WaitForPacket$sloc3$1$0==.
   003B                     635 _WaitForPacket_sloc3_1_0:
   003B                     636 	.ds 4
                    0019    637 Lydrip.WaitForPacket$sloc4$1$0==.
   003F                     638 _WaitForPacket_sloc4_1_0:
   003F                     639 	.ds 4
                    001D    640 Lydrip.WaitForPacket$sloc5$1$0==.
   0043                     641 _WaitForPacket_sloc5_1_0:
   0043                     642 	.ds 4
                    0021    643 Lydrip.delayFor$sloc0$1$0==.
   0047                     644 _delayFor_sloc0_1_0:
   0047                     645 	.ds 4
                            646 ;--------------------------------------------------------
                            647 ; overlayable items in internal ram 
                            648 ;--------------------------------------------------------
                            649 	.area	OSEG    (OVR,DATA)
                    0000    650 Lydrip.dexcom_src_to_ascii$sloc0$1$0==.
   0075                     651 _dexcom_src_to_ascii_sloc0_1_0:
   0075                     652 	.ds 4
                            653 ;--------------------------------------------------------
                            654 ; Stack segment in internal ram 
                            655 ;--------------------------------------------------------
                            656 	.area	SSEG	(DATA)
   007C                     657 __start__stack:
   007C                     658 	.ds	1
                            659 
                            660 ;--------------------------------------------------------
                            661 ; indirectly addressable internal ram data
                            662 ;--------------------------------------------------------
                            663 	.area ISEG    (DATA)
                            664 ;--------------------------------------------------------
                            665 ; absolute internal ram data
                            666 ;--------------------------------------------------------
                            667 	.area IABS    (ABS,DATA)
                            668 	.area IABS    (ABS,DATA)
                            669 ;--------------------------------------------------------
                            670 ; bit data
                            671 ;--------------------------------------------------------
                            672 	.area BSEG    (BIT)
                    0000    673 Fydrip$only_listen_for_my_transmitter$0$0==.
   0000                     674 _only_listen_for_my_transmitter:
   0000                     675 	.ds 1
                    0001    676 Fydrip$status_lights$0$0==.
   0001                     677 _status_lights:
   0001                     678 	.ds 1
                    0002    679 Fydrip$allow_alternate_usb_protocol$0$0==.
   0002                     680 _allow_alternate_usb_protocol:
   0002                     681 	.ds 1
                    0003    682 Fydrip$debug_mode$0$0==.
   0003                     683 _debug_mode:
   0003                     684 	.ds 1
                    0004    685 Fydrip$encrypt_output$0$0==.
   0004                     686 _encrypt_output:
   0004                     687 	.ds 1
                    0005    688 G$needsTimingCalibration$0$0==.
   0005                     689 _needsTimingCalibration::
   0005                     690 	.ds 1
                    0006    691 G$usbEnabled$0$0==.
   0006                     692 _usbEnabled::
   0006                     693 	.ds 1
                    0007    694 Lydrip.goToSleep$storedDma0Armed$3$3==.
   0007                     695 _goToSleep_storedDma0Armed_3_3:
   0007                     696 	.ds 1
                    0008    697 Lydrip.goToSleep$savedP0IE$3$3==.
   0008                     698 _goToSleep_savedP0IE_3_3:
   0008                     699 	.ds 1
                            700 ;--------------------------------------------------------
                            701 ; paged external ram data
                            702 ;--------------------------------------------------------
                            703 	.area PSEG    (PAG,XDATA)
                    0000    704 Fydrip$wake_earlier_for_next_miss$0$0==.
   F000                     705 _wake_earlier_for_next_miss:
   F000                     706 	.ds 1
                    0001    707 Fydrip$misses_until_failure$0$0==.
   F001                     708 _misses_until_failure:
   F001                     709 	.ds 1
                    0002    710 Fydrip$fOffset$0$0==.
   F002                     711 _fOffset:
   F002                     712 	.ds 4
                    0006    713 Fydrip$nChannels$0$0==.
   F006                     714 _nChannels:
   F006                     715 	.ds 4
                    000A    716 Fydrip$waitTimes$0$0==.
   F00A                     717 _waitTimes:
   F00A                     718 	.ds 16
                    001A    719 Fydrip$delayedWaitTimes$0$0==.
   F01A                     720 _delayedWaitTimes:
   F01A                     721 	.ds 16
                    002A    722 Fydrip$catch_offsets$0$0==.
   F02A                     723 _catch_offsets:
   F02A                     724 	.ds 16
                    003A    725 Fydrip$last_catch_channel$0$0==.
   F03A                     726 _last_catch_channel:
   F03A                     727 	.ds 1
                    003B    728 Fydrip$save_IEN0$0$0==.
   F03B                     729 _save_IEN0:
   F03B                     730 	.ds 1
                    003C    731 Fydrip$save_IEN1$0$0==.
   F03C                     732 _save_IEN1:
   F03C                     733 	.ds 1
                    003D    734 Fydrip$save_IEN2$0$0==.
   F03D                     735 _save_IEN2:
   F03D                     736 	.ds 1
                    003E    737 G$sequential_missed_packets$0$0==.
   F03E                     738 _sequential_missed_packets::
   F03E                     739 	.ds 1
                    003F    740 G$intMaxStrLen$0$0==.
   F03F                     741 _intMaxStrLen::
   F03F                     742 	.ds 1
                    0040    743 Lydrip.min8$b$1$1==.
   F040                     744 _min8_PARM_2:
   F040                     745 	.ds 1
                    0041    746 Lydrip.bit_reverse_bytes$nLen$1$1==.
   F041                     747 _bit_reverse_bytes_PARM_2:
   F041                     748 	.ds 1
                    0042    749 Lydrip.bit_reverse_bytes$buf$1$1==.
   F042                     750 _bit_reverse_bytes_buf_1_1:
   F042                     751 	.ds 3
                    0045    752 Lydrip.getTimeBytes$tVector$1$1==.
   F045                     753 _getTimeBytes_tVector_1_1:
   F045                     754 	.ds 2
                    0047    755 Lydrip.print_packet$pPkt$1$1==.
   F047                     756 _print_packet_pPkt_1_1:
   F047                     757 	.ds 2
                    0049    758 Lydrip.goToSleep$storedDescHigh$3$3==.
   F049                     759 _goToSleep_storedDescHigh_3_3:
   F049                     760 	.ds 1
                    004A    761 Lydrip.goToSleep$storedDescLow$3$3==.
   F04A                     762 _goToSleep_storedDescLow_3_3:
   F04A                     763 	.ds 1
                    004B    764 Lydrip.goToSleep$storedIEN1$3$3==.
   F04B                     765 _goToSleep_storedIEN1_3_3:
   F04B                     766 	.ds 1
                    004C    767 Lydrip.goToSleep$storedIEN2$3$3==.
   F04C                     768 _goToSleep_storedIEN2_3_3:
   F04C                     769 	.ds 1
                    004D    770 Lydrip.goToSleep$savedP1SEL$3$3==.
   F04D                     771 _goToSleep_savedP1SEL_3_3:
   F04D                     772 	.ds 1
                    004E    773 Lydrip.goToSleep$savedP1DIR$3$3==.
   F04E                     774 _goToSleep_savedP1DIR_3_3:
   F04E                     775 	.ds 1
                    004F    776 Lydrip.goToSleep$start_waiting$3$8==.
   F04F                     777 _goToSleep_start_waiting_3_8:
   F04F                     778 	.ds 4
                    0053    779 Lydrip.WaitForPacket$pkt$1$1==.
   F053                     780 _WaitForPacket_PARM_2:
   F053                     781 	.ds 2
                    0055    782 Lydrip.get_packet$pPkt$1$1==.
   F055                     783 _get_packet_pPkt_1_1:
   F055                     784 	.ds 2
                            785 ;--------------------------------------------------------
                            786 ; external ram data
                            787 ;--------------------------------------------------------
                            788 	.area XSEG    (XDATA)
                    DF00    789 Fydrip$SYNC1$0$0 == 0xdf00
                    DF00    790 _SYNC1	=	0xdf00
                    DF01    791 Fydrip$SYNC0$0$0 == 0xdf01
                    DF01    792 _SYNC0	=	0xdf01
                    DF02    793 Fydrip$PKTLEN$0$0 == 0xdf02
                    DF02    794 _PKTLEN	=	0xdf02
                    DF03    795 Fydrip$PKTCTRL1$0$0 == 0xdf03
                    DF03    796 _PKTCTRL1	=	0xdf03
                    DF04    797 Fydrip$PKTCTRL0$0$0 == 0xdf04
                    DF04    798 _PKTCTRL0	=	0xdf04
                    DF05    799 Fydrip$ADDR$0$0 == 0xdf05
                    DF05    800 _ADDR	=	0xdf05
                    DF06    801 Fydrip$CHANNR$0$0 == 0xdf06
                    DF06    802 _CHANNR	=	0xdf06
                    DF07    803 Fydrip$FSCTRL1$0$0 == 0xdf07
                    DF07    804 _FSCTRL1	=	0xdf07
                    DF08    805 Fydrip$FSCTRL0$0$0 == 0xdf08
                    DF08    806 _FSCTRL0	=	0xdf08
                    DF09    807 Fydrip$FREQ2$0$0 == 0xdf09
                    DF09    808 _FREQ2	=	0xdf09
                    DF0A    809 Fydrip$FREQ1$0$0 == 0xdf0a
                    DF0A    810 _FREQ1	=	0xdf0a
                    DF0B    811 Fydrip$FREQ0$0$0 == 0xdf0b
                    DF0B    812 _FREQ0	=	0xdf0b
                    DF0C    813 Fydrip$MDMCFG4$0$0 == 0xdf0c
                    DF0C    814 _MDMCFG4	=	0xdf0c
                    DF0D    815 Fydrip$MDMCFG3$0$0 == 0xdf0d
                    DF0D    816 _MDMCFG3	=	0xdf0d
                    DF0E    817 Fydrip$MDMCFG2$0$0 == 0xdf0e
                    DF0E    818 _MDMCFG2	=	0xdf0e
                    DF0F    819 Fydrip$MDMCFG1$0$0 == 0xdf0f
                    DF0F    820 _MDMCFG1	=	0xdf0f
                    DF10    821 Fydrip$MDMCFG0$0$0 == 0xdf10
                    DF10    822 _MDMCFG0	=	0xdf10
                    DF11    823 Fydrip$DEVIATN$0$0 == 0xdf11
                    DF11    824 _DEVIATN	=	0xdf11
                    DF12    825 Fydrip$MCSM2$0$0 == 0xdf12
                    DF12    826 _MCSM2	=	0xdf12
                    DF13    827 Fydrip$MCSM1$0$0 == 0xdf13
                    DF13    828 _MCSM1	=	0xdf13
                    DF14    829 Fydrip$MCSM0$0$0 == 0xdf14
                    DF14    830 _MCSM0	=	0xdf14
                    DF15    831 Fydrip$FOCCFG$0$0 == 0xdf15
                    DF15    832 _FOCCFG	=	0xdf15
                    DF16    833 Fydrip$BSCFG$0$0 == 0xdf16
                    DF16    834 _BSCFG	=	0xdf16
                    DF17    835 Fydrip$AGCCTRL2$0$0 == 0xdf17
                    DF17    836 _AGCCTRL2	=	0xdf17
                    DF18    837 Fydrip$AGCCTRL1$0$0 == 0xdf18
                    DF18    838 _AGCCTRL1	=	0xdf18
                    DF19    839 Fydrip$AGCCTRL0$0$0 == 0xdf19
                    DF19    840 _AGCCTRL0	=	0xdf19
                    DF1A    841 Fydrip$FREND1$0$0 == 0xdf1a
                    DF1A    842 _FREND1	=	0xdf1a
                    DF1B    843 Fydrip$FREND0$0$0 == 0xdf1b
                    DF1B    844 _FREND0	=	0xdf1b
                    DF1C    845 Fydrip$FSCAL3$0$0 == 0xdf1c
                    DF1C    846 _FSCAL3	=	0xdf1c
                    DF1D    847 Fydrip$FSCAL2$0$0 == 0xdf1d
                    DF1D    848 _FSCAL2	=	0xdf1d
                    DF1E    849 Fydrip$FSCAL1$0$0 == 0xdf1e
                    DF1E    850 _FSCAL1	=	0xdf1e
                    DF1F    851 Fydrip$FSCAL0$0$0 == 0xdf1f
                    DF1F    852 _FSCAL0	=	0xdf1f
                    DF23    853 Fydrip$TEST2$0$0 == 0xdf23
                    DF23    854 _TEST2	=	0xdf23
                    DF24    855 Fydrip$TEST1$0$0 == 0xdf24
                    DF24    856 _TEST1	=	0xdf24
                    DF25    857 Fydrip$TEST0$0$0 == 0xdf25
                    DF25    858 _TEST0	=	0xdf25
                    DF2E    859 Fydrip$PA_TABLE0$0$0 == 0xdf2e
                    DF2E    860 _PA_TABLE0	=	0xdf2e
                    DF2F    861 Fydrip$IOCFG2$0$0 == 0xdf2f
                    DF2F    862 _IOCFG2	=	0xdf2f
                    DF30    863 Fydrip$IOCFG1$0$0 == 0xdf30
                    DF30    864 _IOCFG1	=	0xdf30
                    DF31    865 Fydrip$IOCFG0$0$0 == 0xdf31
                    DF31    866 _IOCFG0	=	0xdf31
                    DF36    867 Fydrip$PARTNUM$0$0 == 0xdf36
                    DF36    868 _PARTNUM	=	0xdf36
                    DF37    869 Fydrip$VERSION$0$0 == 0xdf37
                    DF37    870 _VERSION	=	0xdf37
                    DF38    871 Fydrip$FREQEST$0$0 == 0xdf38
                    DF38    872 _FREQEST	=	0xdf38
                    DF39    873 Fydrip$LQI$0$0 == 0xdf39
                    DF39    874 _LQI	=	0xdf39
                    DF3A    875 Fydrip$RSSI$0$0 == 0xdf3a
                    DF3A    876 _RSSI	=	0xdf3a
                    DF3B    877 Fydrip$MARCSTATE$0$0 == 0xdf3b
                    DF3B    878 _MARCSTATE	=	0xdf3b
                    DF3C    879 Fydrip$PKTSTATUS$0$0 == 0xdf3c
                    DF3C    880 _PKTSTATUS	=	0xdf3c
                    DF3D    881 Fydrip$VCO_VC_DAC$0$0 == 0xdf3d
                    DF3D    882 _VCO_VC_DAC	=	0xdf3d
                    DF40    883 Fydrip$I2SCFG0$0$0 == 0xdf40
                    DF40    884 _I2SCFG0	=	0xdf40
                    DF41    885 Fydrip$I2SCFG1$0$0 == 0xdf41
                    DF41    886 _I2SCFG1	=	0xdf41
                    DF42    887 Fydrip$I2SDATL$0$0 == 0xdf42
                    DF42    888 _I2SDATL	=	0xdf42
                    DF43    889 Fydrip$I2SDATH$0$0 == 0xdf43
                    DF43    890 _I2SDATH	=	0xdf43
                    DF44    891 Fydrip$I2SWCNT$0$0 == 0xdf44
                    DF44    892 _I2SWCNT	=	0xdf44
                    DF45    893 Fydrip$I2SSTAT$0$0 == 0xdf45
                    DF45    894 _I2SSTAT	=	0xdf45
                    DF46    895 Fydrip$I2SCLKF0$0$0 == 0xdf46
                    DF46    896 _I2SCLKF0	=	0xdf46
                    DF47    897 Fydrip$I2SCLKF1$0$0 == 0xdf47
                    DF47    898 _I2SCLKF1	=	0xdf47
                    DF48    899 Fydrip$I2SCLKF2$0$0 == 0xdf48
                    DF48    900 _I2SCLKF2	=	0xdf48
                    DE00    901 Fydrip$USBADDR$0$0 == 0xde00
                    DE00    902 _USBADDR	=	0xde00
                    DE01    903 Fydrip$USBPOW$0$0 == 0xde01
                    DE01    904 _USBPOW	=	0xde01
                    DE02    905 Fydrip$USBIIF$0$0 == 0xde02
                    DE02    906 _USBIIF	=	0xde02
                    DE04    907 Fydrip$USBOIF$0$0 == 0xde04
                    DE04    908 _USBOIF	=	0xde04
                    DE06    909 Fydrip$USBCIF$0$0 == 0xde06
                    DE06    910 _USBCIF	=	0xde06
                    DE07    911 Fydrip$USBIIE$0$0 == 0xde07
                    DE07    912 _USBIIE	=	0xde07
                    DE09    913 Fydrip$USBOIE$0$0 == 0xde09
                    DE09    914 _USBOIE	=	0xde09
                    DE0B    915 Fydrip$USBCIE$0$0 == 0xde0b
                    DE0B    916 _USBCIE	=	0xde0b
                    DE0C    917 Fydrip$USBFRML$0$0 == 0xde0c
                    DE0C    918 _USBFRML	=	0xde0c
                    DE0D    919 Fydrip$USBFRMH$0$0 == 0xde0d
                    DE0D    920 _USBFRMH	=	0xde0d
                    DE0E    921 Fydrip$USBINDEX$0$0 == 0xde0e
                    DE0E    922 _USBINDEX	=	0xde0e
                    DE10    923 Fydrip$USBMAXI$0$0 == 0xde10
                    DE10    924 _USBMAXI	=	0xde10
                    DE11    925 Fydrip$USBCSIL$0$0 == 0xde11
                    DE11    926 _USBCSIL	=	0xde11
                    DE12    927 Fydrip$USBCSIH$0$0 == 0xde12
                    DE12    928 _USBCSIH	=	0xde12
                    DE13    929 Fydrip$USBMAXO$0$0 == 0xde13
                    DE13    930 _USBMAXO	=	0xde13
                    DE14    931 Fydrip$USBCSOL$0$0 == 0xde14
                    DE14    932 _USBCSOL	=	0xde14
                    DE15    933 Fydrip$USBCSOH$0$0 == 0xde15
                    DE15    934 _USBCSOH	=	0xde15
                    DE16    935 Fydrip$USBCNTL$0$0 == 0xde16
                    DE16    936 _USBCNTL	=	0xde16
                    DE17    937 Fydrip$USBCNTH$0$0 == 0xde17
                    DE17    938 _USBCNTH	=	0xde17
                    DE20    939 Fydrip$USBF0$0$0 == 0xde20
                    DE20    940 _USBF0	=	0xde20
                    DE22    941 Fydrip$USBF1$0$0 == 0xde22
                    DE22    942 _USBF1	=	0xde22
                    DE24    943 Fydrip$USBF2$0$0 == 0xde24
                    DE24    944 _USBF2	=	0xde24
                    DE26    945 Fydrip$USBF3$0$0 == 0xde26
                    DE26    946 _USBF3	=	0xde26
                    DE28    947 Fydrip$USBF4$0$0 == 0xde28
                    DE28    948 _USBF4	=	0xde28
                    DE2A    949 Fydrip$USBF5$0$0 == 0xde2a
                    DE2A    950 _USBF5	=	0xde2a
                    0000    951 Lydrip.bit_reverse_byte$bRet$1$1==.
   F0FC                     952 _bit_reverse_byte_bRet_1_1:
   F0FC                     953 	.ds 1
                    0001    954 Lydrip.dex_num_decoder$usReversed$1$1==.
   F0FD                     955 _dex_num_decoder_usReversed_1_1:
   F0FD                     956 	.ds 2
                    0003    957 Lydrip.dexcom_src_to_ascii$addr$1$1==.
   F0FF                     958 _dexcom_src_to_ascii_PARM_2:
   F0FF                     959 	.ds 2
                    0005    960 Lydrip.dexcom_src_to_ascii$src$1$1==.
   F101                     961 _dexcom_src_to_ascii_src_1_1:
   F101                     962 	.ds 4
                    0009    963 Lydrip.getSrcValue$srcVal$1$1==.
   F105                     964 _getSrcValue_srcVal_1_1:
   F105                     965 	.ds 1
                    000A    966 Lydrip.getESPString$uartCharacters$1$1==.
   F106                     967 _getESPString_uartCharacters_1_1:
   F106                     968 	.ds 80
                    005A    969 Lydrip.getESPString$i$1$1==.
   F156                     970 _getESPString_i_1_1:
   F156                     971 	.ds 1
                    005B    972 Lydrip.getESPString$stop$1$1==.
   F157                     973 _getESPString_stop_1_1:
   F157                     974 	.ds 4
                    005F    975 Lydrip.getESPString$now$1$1==.
   F15B                     976 _getESPString_now_1_1:
   F15B                     977 	.ds 4
                    0063    978 Lydrip.sendAT$atString$1$1==.
   F15F                     979 _sendAT_atString_1_1:
   F15F                     980 	.ds 2
                    0065    981 Lydrip.sendAT$ATresponse$1$1==.
   F161                     982 _sendAT_ATresponse_1_1:
   F161                     983 	.ds 80
                    00B5    984 Lydrip.enableESP$c$1$1==.
   F1B1                     985 _enableESP_c_1_1:
   F1B1                     986 	.ds 80
                    0105    987 Lydrip.enableESP$nofile$1$1==.
   F201                     988 _enableESP_nofile_1_1:
   F201                     989 	.ds 7
                    010C    990 Lydrip.enableESP$clen$1$1==.
   F208                     991 _enableESP_clen_1_1:
   F208                     992 	.ds 2
                    010E    993 Lydrip.getWifiStatus$i$1$1==.
   F20A                     994 _getWifiStatus_i_1_1:
   F20A                     995 	.ds 2
                    0110    996 Lydrip.getWifiStatus$intStatus$1$1==.
   F20C                     997 _getWifiStatus_intStatus_1_1:
   F20C                     998 	.ds 2
                    0112    999 Lydrip.getWifiStatus$c$1$1==.
   F20E                    1000 _getWifiStatus_c_1_1:
   F20E                    1001 	.ds 80
                    0162   1002 Lydrip.wifiFlash$intWifiStatus$1$1==.
   F25E                    1003 _wifiFlash_intWifiStatus_1_1:
   F25E                    1004 	.ds 2
                    0164   1005 Lydrip.wifiConnect$atString$1$1==.
   F260                    1006 _wifiConnect_atString_1_1:
   F260                    1007 	.ds 40
                    018C   1008 Lydrip.wifiConnect$intWifiStatus$1$1==.
   F288                    1009 _wifiConnect_intWifiStatus_1_1:
   F288                    1010 	.ds 2
                    018E   1011 Lydrip.getTimeBytes$c$1$1==.
   F28A                    1012 _getTimeBytes_c_1_1:
   F28A                    1013 	.ds 80
                    01DE   1014 Lydrip.getTimeBytes$strMMM$1$1==.
   F2DA                    1015 _getTimeBytes_strMMM_1_1:
   F2DA                    1016 	.ds 4
                    01E2   1017 Lydrip.print_packet$transID$1$1==.
   F2DE                    1018 _print_packet_transID_1_1:
   F2DE                    1019 	.ds 6
                    01E8   1020 Lydrip.print_packet$iv$1$1==.
   F2E4                    1021 _print_packet_iv_1_1:
   F2E4                    1022 	.ds 16
                    01F8   1023 Lydrip.print_packet$sprintfBuffer$1$1==.
   F2F4                    1024 _print_packet_sprintfBuffer_1_1:
   F2F4                    1025 	.ds 64
                    0238   1026 Lydrip.print_packet$AESBuffer$1$1==.
   F334                    1027 _print_packet_AESBuffer_1_1:
   F334                    1028 	.ds 64
                    0278   1029 Lydrip.print_packet$getTimeResponse$1$1==.
   F374                    1030 _print_packet_getTimeResponse_1_1:
   F374                    1031 	.ds 17
                    0289   1032 Lydrip.goToSleep$seconds$1$1==.
   F385                    1033 _goToSleep_seconds_1_1:
   F385                    1034 	.ds 2
                    028B   1035 Lydrip.putchar$c$1$1==.
   F387                    1036 _putchar_c_1_1:
   F387                    1037 	.ds 1
                    028C   1038 Lydrip.swap_channel$newFSCTRL0$1$1==.
   F388                    1039 _swap_channel_PARM_2:
   F388                    1040 	.ds 1
                    028D   1041 Lydrip.swap_channel$channel$1$1==.
   F389                    1042 _swap_channel_channel_1_1:
   F389                    1043 	.ds 1
                    028E   1044 Lydrip.WaitForPacket$channel$1$1==.
   F38A                    1045 _WaitForPacket_PARM_3:
   F38A                    1046 	.ds 1
                    028F   1047 Lydrip.WaitForPacket$milliseconds$1$1==.
   F38B                    1048 _WaitForPacket_milliseconds_1_1:
   F38B                    1049 	.ds 2
                    0291   1050 Lydrip.WaitForPacket$six_minutes$1$1==.
   F38D                    1051 _WaitForPacket_six_minutes_1_1:
   F38D                    1052 	.ds 4
                    0295   1053 Lydrip.WaitForPacket$transID$1$1==.
   F391                    1054 _WaitForPacket_transID_1_1:
   F391                    1055 	.ds 6
                    029B   1056 Lydrip.delayFor$wait_chan$1$1==.
   F397                    1057 _delayFor_wait_chan_1_1:
   F397                    1058 	.ds 2
                    029D   1059 Lydrip.main$Pkt$2$2==.
   F399                    1060 _main_Pkt_2_2:
   F399                    1061 	.ds 21
                           1062 ;--------------------------------------------------------
                           1063 ; absolute external ram data
                           1064 ;--------------------------------------------------------
                           1065 	.area XABS    (ABS,XDATA)
                           1066 ;--------------------------------------------------------
                           1067 ; external initialized ram data
                           1068 ;--------------------------------------------------------
                           1069 	.area XISEG   (XDATA)
                    0000   1070 Fydrip$transmitter_id$0$0==.
   F825                    1071 _transmitter_id:
   F825                    1072 	.ds 6
                    0006   1073 Fydrip$dexie_host_address$0$0==.
   F82B                    1074 _dexie_host_address:
   F82B                    1075 	.ds 22
                    001C   1076 Fydrip$dexie_host_port$0$0==.
   F841                    1077 _dexie_host_port:
   F841                    1078 	.ds 6
                    0022   1079 G$wixFone_ID$0$0==.
   F847                    1080 _wixFone_ID::
   F847                    1081 	.ds 8
                    002A   1082 Fydrip$key$0$0==.
   F84F                    1083 _key:
   F84F                    1084 	.ds 16
                    003A   1085 Fydrip$start_channel$0$0==.
   F85F                    1086 _start_channel:
   F85F                    1087 	.ds 1
                    003B   1088 Fydrip$defaultfOffset$0$0==.
   F860                    1089 _defaultfOffset:
   F860                    1090 	.ds 4
                    003F   1091 G$PM2_BUF$0$0==.
   F864                    1092 _PM2_BUF::
   F864                    1093 	.ds 7
                    0046   1094 G$dmaDesc$0$0==.
   F86B                    1095 _dmaDesc::
   F86B                    1096 	.ds 8
                    004E   1097 G$AT_TIMEOUT$0$0==.
   F873                    1098 _AT_TIMEOUT::
   F873                    1099 	.ds 1
                    004F   1100 Fydrip$defaultWaitTime$0$0==.
   F874                    1101 _defaultWaitTime:
   F874                    1102 	.ds 4
                    0053   1103 G$SrcNameTable$0$0==.
   F878                    1104 _SrcNameTable::
   F878                    1105 	.ds 32
                           1106 	.area HOME    (CODE)
                           1107 	.area GSINIT0 (CODE)
                           1108 	.area GSINIT1 (CODE)
                           1109 	.area GSINIT2 (CODE)
                           1110 	.area GSINIT3 (CODE)
                           1111 	.area GSINIT4 (CODE)
                           1112 	.area GSINIT5 (CODE)
                           1113 	.area GSINIT  (CODE)
                           1114 	.area GSFINAL (CODE)
                           1115 	.area CSEG    (CODE)
                           1116 ;--------------------------------------------------------
                           1117 ; interrupt vector 
                           1118 ;--------------------------------------------------------
                           1119 	.area HOME    (CODE)
   0400                    1120 __interrupt_vect:
   0400 02 04 8D           1121 	ljmp	__sdcc_gsinit_startup
   0403 32                 1122 	reti
   0404                    1123 	.ds	7
   040B 32                 1124 	reti
   040C                    1125 	.ds	7
   0413 32                 1126 	reti
   0414                    1127 	.ds	7
   041B 02 2E 6B           1128 	ljmp	_ISR_URX1
   041E                    1129 	.ds	5
   0423 32                 1130 	reti
   0424                    1131 	.ds	7
   042B 02 06 33           1132 	ljmp	_ISR_ST
   042E                    1133 	.ds	5
   0433 32                 1134 	reti
   0434                    1135 	.ds	7
   043B 32                 1136 	reti
   043C                    1137 	.ds	7
   0443 32                 1138 	reti
   0444                    1139 	.ds	7
   044B 32                 1140 	reti
   044C                    1141 	.ds	7
   0453 32                 1142 	reti
   0454                    1143 	.ds	7
   045B 32                 1144 	reti
   045C                    1145 	.ds	7
   0463 02 4C 9E           1146 	ljmp	_ISR_T4
   0466                    1147 	.ds	5
   046B 32                 1148 	reti
   046C                    1149 	.ds	7
   0473 02 2E 2D           1150 	ljmp	_ISR_UTX1
   0476                    1151 	.ds	5
   047B 32                 1152 	reti
   047C                    1153 	.ds	7
   0483 02 2F A7           1154 	ljmp	_ISR_RF
                           1155 ;--------------------------------------------------------
                           1156 ; global & static initialisations
                           1157 ;--------------------------------------------------------
                           1158 	.area HOME    (CODE)
                           1159 	.area GSINIT  (CODE)
                           1160 	.area GSFINAL (CODE)
                           1161 	.area GSINIT  (CODE)
                           1162 	.globl __sdcc_gsinit_startup
                           1163 	.globl __sdcc_program_startup
                           1164 	.globl __start__stack
                           1165 	.globl __mcs51_genXINIT
                           1166 	.globl __mcs51_genXRAMCLEAR
                           1167 	.globl __mcs51_genRAMCLEAR
                           1168 ;------------------------------------------------------------
                           1169 ;Allocation info for local variables in function 'enableESP'
                           1170 ;------------------------------------------------------------
                           1171 ;c                         Allocated with name '_enableESP_c_1_1'
                           1172 ;nofile                    Allocated with name '_enableESP_nofile_1_1'
                           1173 ;clen                      Allocated with name '_enableESP_clen_1_1'
                           1174 ;------------------------------------------------------------
                    0000   1175 	G$enableESP$0$0 ==.
                    0000   1176 	C$ydrip.c$356$1$1 ==.
                           1177 ;	apps/ydrip/ydrip.c:356: XDATA static int16 clen=0;
   04E6 90 F2 08           1178 	mov	dptr,#_enableESP_clen_1_1
   04E9 E4                 1179 	clr	a
   04EA F0                 1180 	movx	@dptr,a
   04EB A3                 1181 	inc	dptr
   04EC F0                 1182 	movx	@dptr,a
                           1183 ;------------------------------------------------------------
                           1184 ;Allocation info for local variables in function 'getWifiStatus'
                           1185 ;------------------------------------------------------------
                           1186 ;i                         Allocated with name '_getWifiStatus_i_1_1'
                           1187 ;intStatus                 Allocated with name '_getWifiStatus_intStatus_1_1'
                           1188 ;c                         Allocated with name '_getWifiStatus_c_1_1'
                           1189 ;------------------------------------------------------------
                    0007   1190 	G$getWifiStatus$0$0 ==.
                    0007   1191 	C$ydrip.c$430$1$1 ==.
                           1192 ;	apps/ydrip/ydrip.c:430: XDATA static int16 i=0;
   04ED 90 F2 0A           1193 	mov	dptr,#_getWifiStatus_i_1_1
   04F0 E4                 1194 	clr	a
   04F1 F0                 1195 	movx	@dptr,a
   04F2 A3                 1196 	inc	dptr
   04F3 F0                 1197 	movx	@dptr,a
                    000E   1198 	G$main$0$0 ==.
                    000E   1199 	C$ydrip.c$54$1$1 ==.
                           1200 ;	apps/ydrip/ydrip.c:54: static volatile BIT only_listen_for_my_transmitter = 1;                                           //
   04F4 D2 00              1201 	setb	_only_listen_for_my_transmitter
                    0010   1202 	G$main$0$0 ==.
                    0010   1203 	C$ydrip.c$57$1$1 ==.
                           1204 ;	apps/ydrip/ydrip.c:57: static volatile BIT status_lights = 1;                                                            //
   04F6 D2 01              1205 	setb	_status_lights
                    0012   1206 	G$main$0$0 ==.
                    0012   1207 	C$ydrip.c$61$1$1 ==.
                           1208 ;	apps/ydrip/ydrip.c:61: static volatile BIT allow_alternate_usb_protocol = 0;
   04F8 C2 02              1209 	clr	_allow_alternate_usb_protocol
                    0014   1210 	G$main$0$0 ==.
                    0014   1211 	C$ydrip.c$65$1$1 ==.
                           1212 ;	apps/ydrip/ydrip.c:65: static volatile BIT debug_mode = 0;
   04FA C2 03              1213 	clr	_debug_mode
                    0016   1214 	G$main$0$0 ==.
                    0016   1215 	C$ydrip.c$93$1$1 ==.
                           1216 ;	apps/ydrip/ydrip.c:93: static volatile BIT encrypt_output = 1;
   04FC D2 04              1217 	setb	_encrypt_output
                    0018   1218 	G$main$0$0 ==.
                    0018   1219 	C$ydrip.c$126$1$1 ==.
                           1220 ;	apps/ydrip/ydrip.c:126: BIT needsTimingCalibration = 1;
   04FE D2 05              1221 	setb	_needsTimingCalibration
                    001A   1222 	G$main$0$0 ==.
                    001A   1223 	C$ydrip.c$127$1$1 ==.
                           1224 ;	apps/ydrip/ydrip.c:127: BIT usbEnabled = 1;
   0500 D2 06              1225 	setb	_usbEnabled
                    001C   1226 	G$main$0$0 ==.
                    001C   1227 	C$ydrip.c$82$1$1 ==.
                           1228 ;	apps/ydrip/ydrip.c:82: static volatile uint8 wake_earlier_for_next_miss = 20;                                            //
   0502 78 00              1229 	mov	r0,#_wake_earlier_for_next_miss
   0504 74 14              1230 	mov	a,#0x14
   0506 F2                 1231 	movx	@r0,a
                    0021   1232 	G$main$0$0 ==.
                    0021   1233 	C$ydrip.c$86$1$1 ==.
                           1234 ;	apps/ydrip/ydrip.c:86: static volatile uint8 misses_until_failure = 1;                                                   //
   0507 78 01              1235 	mov	r0,#_misses_until_failure
   0509 74 01              1236 	mov	a,#0x01
   050B F2                 1237 	movx	@r0,a
                    0026   1238 	G$main$0$0 ==.
                    0026   1239 	C$ydrip.c$118$1$1 ==.
                           1240 ;	apps/ydrip/ydrip.c:118: static int8 fOffset[NUM_CHANNELS] = {0xCE,0xD5,0xE6,0xE5};
   050C 78 02              1241 	mov	r0,#_fOffset
   050E 74 CE              1242 	mov	a,#0xCE
   0510 F2                 1243 	movx	@r0,a
   0511 78 03              1244 	mov	r0,#(_fOffset + 0x0001)
   0513 74 D5              1245 	mov	a,#0xD5
   0515 F2                 1246 	movx	@r0,a
   0516 78 04              1247 	mov	r0,#(_fOffset + 0x0002)
   0518 74 E6              1248 	mov	a,#0xE6
   051A F2                 1249 	movx	@r0,a
   051B 78 05              1250 	mov	r0,#(_fOffset + 0x0003)
   051D 74 E5              1251 	mov	a,#0xE5
   051F F2                 1252 	movx	@r0,a
                    003A   1253 	G$main$0$0 ==.
                    003A   1254 	C$ydrip.c$120$1$1 ==.
                           1255 ;	apps/ydrip/ydrip.c:120: static uint8 nChannels[NUM_CHANNELS] = { 0, 100, 199, 209 };
   0520 78 06              1256 	mov	r0,#_nChannels
   0522 E4                 1257 	clr	a
   0523 F2                 1258 	movx	@r0,a
   0524 78 07              1259 	mov	r0,#(_nChannels + 0x0001)
   0526 74 64              1260 	mov	a,#0x64
   0528 F2                 1261 	movx	@r0,a
   0529 78 08              1262 	mov	r0,#(_nChannels + 0x0002)
   052B 74 C7              1263 	mov	a,#0xC7
   052D F2                 1264 	movx	@r0,a
   052E 78 09              1265 	mov	r0,#(_nChannels + 0x0003)
   0530 74 D1              1266 	mov	a,#0xD1
   0532 F2                 1267 	movx	@r0,a
                    004D   1268 	G$main$0$0 ==.
                    004D   1269 	C$ydrip.c$121$1$1 ==.
                           1270 ;	apps/ydrip/ydrip.c:121: static uint32 waitTimes[NUM_CHANNELS] = { 13500, 500, 500, 500 };
   0533 78 0A              1271 	mov	r0,#_waitTimes
   0535 74 BC              1272 	mov	a,#0xBC
   0537 F2                 1273 	movx	@r0,a
   0538 08                 1274 	inc	r0
   0539 74 34              1275 	mov	a,#0x34
   053B F2                 1276 	movx	@r0,a
   053C 08                 1277 	inc	r0
   053D E4                 1278 	clr	a
   053E F2                 1279 	movx	@r0,a
   053F 08                 1280 	inc	r0
   0540 F2                 1281 	movx	@r0,a
   0541 78 0E              1282 	mov	r0,#(_waitTimes + 0x0004)
   0543 74 F4              1283 	mov	a,#0xF4
   0545 F2                 1284 	movx	@r0,a
   0546 08                 1285 	inc	r0
   0547 74 01              1286 	mov	a,#0x01
   0549 F2                 1287 	movx	@r0,a
   054A 08                 1288 	inc	r0
   054B E4                 1289 	clr	a
   054C F2                 1290 	movx	@r0,a
   054D 08                 1291 	inc	r0
   054E F2                 1292 	movx	@r0,a
   054F 78 12              1293 	mov	r0,#(_waitTimes + 0x0008)
   0551 74 F4              1294 	mov	a,#0xF4
   0553 F2                 1295 	movx	@r0,a
   0554 08                 1296 	inc	r0
   0555 74 01              1297 	mov	a,#0x01
   0557 F2                 1298 	movx	@r0,a
   0558 08                 1299 	inc	r0
   0559 E4                 1300 	clr	a
   055A F2                 1301 	movx	@r0,a
   055B 08                 1302 	inc	r0
   055C F2                 1303 	movx	@r0,a
   055D 78 16              1304 	mov	r0,#(_waitTimes + 0x000c)
   055F 74 F4              1305 	mov	a,#0xF4
   0561 F2                 1306 	movx	@r0,a
   0562 08                 1307 	inc	r0
   0563 74 01              1308 	mov	a,#0x01
   0565 F2                 1309 	movx	@r0,a
   0566 08                 1310 	inc	r0
   0567 E4                 1311 	clr	a
   0568 F2                 1312 	movx	@r0,a
   0569 08                 1313 	inc	r0
   056A F2                 1314 	movx	@r0,a
                    0085   1315 	G$main$0$0 ==.
                    0085   1316 	C$ydrip.c$123$1$1 ==.
                           1317 ;	apps/ydrip/ydrip.c:123: static uint32 delayedWaitTimes[NUM_CHANNELS] = { 0, 700, 700, 700 };
   056B 78 1A              1318 	mov	r0,#_delayedWaitTimes
   056D E4                 1319 	clr	a
   056E F2                 1320 	movx	@r0,a
   056F 08                 1321 	inc	r0
   0570 F2                 1322 	movx	@r0,a
   0571 08                 1323 	inc	r0
   0572 F2                 1324 	movx	@r0,a
   0573 08                 1325 	inc	r0
   0574 F2                 1326 	movx	@r0,a
   0575 78 1E              1327 	mov	r0,#(_delayedWaitTimes + 0x0004)
   0577 74 BC              1328 	mov	a,#0xBC
   0579 F2                 1329 	movx	@r0,a
   057A 08                 1330 	inc	r0
   057B 74 02              1331 	mov	a,#0x02
   057D F2                 1332 	movx	@r0,a
   057E 08                 1333 	inc	r0
   057F E4                 1334 	clr	a
   0580 F2                 1335 	movx	@r0,a
   0581 08                 1336 	inc	r0
   0582 F2                 1337 	movx	@r0,a
   0583 78 22              1338 	mov	r0,#(_delayedWaitTimes + 0x0008)
   0585 74 BC              1339 	mov	a,#0xBC
   0587 F2                 1340 	movx	@r0,a
   0588 08                 1341 	inc	r0
   0589 74 02              1342 	mov	a,#0x02
   058B F2                 1343 	movx	@r0,a
   058C 08                 1344 	inc	r0
   058D E4                 1345 	clr	a
   058E F2                 1346 	movx	@r0,a
   058F 08                 1347 	inc	r0
   0590 F2                 1348 	movx	@r0,a
   0591 78 26              1349 	mov	r0,#(_delayedWaitTimes + 0x000c)
   0593 74 BC              1350 	mov	a,#0xBC
   0595 F2                 1351 	movx	@r0,a
   0596 08                 1352 	inc	r0
   0597 74 02              1353 	mov	a,#0x02
   0599 F2                 1354 	movx	@r0,a
   059A 08                 1355 	inc	r0
   059B E4                 1356 	clr	a
   059C F2                 1357 	movx	@r0,a
   059D 08                 1358 	inc	r0
   059E F2                 1359 	movx	@r0,a
                    00B9   1360 	G$main$0$0 ==.
                    00B9   1361 	C$ydrip.c$124$1$1 ==.
                           1362 ;	apps/ydrip/ydrip.c:124: static uint32 catch_offsets[NUM_CHANNELS] = { 0, 0, 0, 0 };
   059F 78 2A              1363 	mov	r0,#_catch_offsets
   05A1 E4                 1364 	clr	a
   05A2 F2                 1365 	movx	@r0,a
   05A3 08                 1366 	inc	r0
   05A4 F2                 1367 	movx	@r0,a
   05A5 08                 1368 	inc	r0
   05A6 F2                 1369 	movx	@r0,a
   05A7 08                 1370 	inc	r0
   05A8 F2                 1371 	movx	@r0,a
   05A9 78 2E              1372 	mov	r0,#(_catch_offsets + 0x0004)
   05AB E4                 1373 	clr	a
   05AC F2                 1374 	movx	@r0,a
   05AD 08                 1375 	inc	r0
   05AE F2                 1376 	movx	@r0,a
   05AF 08                 1377 	inc	r0
   05B0 F2                 1378 	movx	@r0,a
   05B1 08                 1379 	inc	r0
   05B2 F2                 1380 	movx	@r0,a
   05B3 78 32              1381 	mov	r0,#(_catch_offsets + 0x0008)
   05B5 E4                 1382 	clr	a
   05B6 F2                 1383 	movx	@r0,a
   05B7 08                 1384 	inc	r0
   05B8 F2                 1385 	movx	@r0,a
   05B9 08                 1386 	inc	r0
   05BA F2                 1387 	movx	@r0,a
   05BB 08                 1388 	inc	r0
   05BC F2                 1389 	movx	@r0,a
   05BD 78 36              1390 	mov	r0,#(_catch_offsets + 0x000c)
   05BF E4                 1391 	clr	a
   05C0 F2                 1392 	movx	@r0,a
   05C1 08                 1393 	inc	r0
   05C2 F2                 1394 	movx	@r0,a
   05C3 08                 1395 	inc	r0
   05C4 F2                 1396 	movx	@r0,a
   05C5 08                 1397 	inc	r0
   05C6 F2                 1398 	movx	@r0,a
                    00E1   1399 	G$main$0$0 ==.
                    00E1   1400 	C$ydrip.c$125$1$1 ==.
                           1401 ;	apps/ydrip/ydrip.c:125: static uint8 last_catch_channel = 0;
   05C7 78 3A              1402 	mov	r0,#_last_catch_channel
   05C9 E4                 1403 	clr	a
   05CA F2                 1404 	movx	@r0,a
                    00E5   1405 	G$main$0$0 ==.
                    00E5   1406 	C$ydrip.c$133$1$1 ==.
                           1407 ;	apps/ydrip/ydrip.c:133: volatile uint8 sequential_missed_packets = 0;
   05CB 78 3E              1408 	mov	r0,#_sequential_missed_packets
   05CD E4                 1409 	clr	a
   05CE F2                 1410 	movx	@r0,a
                    00E9   1411 	G$main$0$0 ==.
                    00E9   1412 	C$ydrip.c$135$1$1 ==.
                           1413 ;	apps/ydrip/ydrip.c:135: uint8 intMaxStrLen = 80;
   05CF 78 3F              1414 	mov	r0,#_intMaxStrLen
   05D1 74 50              1415 	mov	a,#0x50
   05D3 F2                 1416 	movx	@r0,a
                           1417 	.area GSFINAL (CODE)
   062C 02 04 86           1418 	ljmp	__sdcc_program_startup
                           1419 ;--------------------------------------------------------
                           1420 ; Home
                           1421 ;--------------------------------------------------------
                           1422 	.area HOME    (CODE)
                           1423 	.area HOME    (CODE)
   0486                    1424 __sdcc_program_startup:
   0486 12 2B 3E           1425 	lcall	_main
                           1426 ;	return from main will lock up
   0489 80 FE              1427 	sjmp .
                           1428 ;--------------------------------------------------------
                           1429 ; code
                           1430 ;--------------------------------------------------------
                           1431 	.area CSEG    (CODE)
                           1432 ;------------------------------------------------------------
                           1433 ;Allocation info for local variables in function 'sleepInit'
                           1434 ;------------------------------------------------------------
                    0000   1435 	G$sleepInit$0$0 ==.
                    0000   1436 	C$ydrip.c$161$0$0 ==.
                           1437 ;	apps/ydrip/ydrip.c:161: void sleepInit(void) {
                           1438 ;	-----------------------------------------
                           1439 ;	 function sleepInit
                           1440 ;	-----------------------------------------
   062F                    1441 _sleepInit:
                    0007   1442 	ar7 = 0x07
                    0006   1443 	ar6 = 0x06
                    0005   1444 	ar5 = 0x05
                    0004   1445 	ar4 = 0x04
                    0003   1446 	ar3 = 0x03
                    0002   1447 	ar2 = 0x02
                    0001   1448 	ar1 = 0x01
                    0000   1449 	ar0 = 0x00
                    0000   1450 	C$ydrip.c$162$1$1 ==.
                           1451 ;	apps/ydrip/ydrip.c:162: WORIRQ  |= (1<<4);
   062F 43 A1 10           1452 	orl	_WORIRQ,#0x10
                    0003   1453 	C$ydrip.c$163$1$1 ==.
                    0003   1454 	XG$sleepInit$0$0 ==.
   0632 22                 1455 	ret
                           1456 ;------------------------------------------------------------
                           1457 ;Allocation info for local variables in function 'ISR_ST'
                           1458 ;------------------------------------------------------------
                    0004   1459 	G$ISR_ST$0$0 ==.
                    0004   1460 	C$ydrip.c$165$1$1 ==.
                           1461 ;	apps/ydrip/ydrip.c:165: ISR(ST, 1) {
                           1462 ;	-----------------------------------------
                           1463 ;	 function ISR_ST
                           1464 ;	-----------------------------------------
   0633                    1465 _ISR_ST:
                    000F   1466 	ar7 = 0x0F
                    000E   1467 	ar6 = 0x0E
                    000D   1468 	ar5 = 0x0D
                    000C   1469 	ar4 = 0x0C
                    000B   1470 	ar3 = 0x0B
                    000A   1471 	ar2 = 0x0A
                    0009   1472 	ar1 = 0x09
                    0008   1473 	ar0 = 0x08
                    0004   1474 	C$ydrip.c$166$1$1 ==.
                           1475 ;	apps/ydrip/ydrip.c:166: IRCON &= 0x7F;
   0633 53 C0 7F           1476 	anl	_IRCON,#0x7F
                    0007   1477 	C$ydrip.c$167$1$1 ==.
                           1478 ;	apps/ydrip/ydrip.c:167: WORIRQ &= 0xFE;
   0636 53 A1 FE           1479 	anl	_WORIRQ,#0xFE
                    000A   1480 	C$ydrip.c$168$1$1 ==.
                           1481 ;	apps/ydrip/ydrip.c:168: SLEEP &= 0xFC;
   0639 53 BE FC           1482 	anl	_SLEEP,#0xFC
                    000D   1483 	C$ydrip.c$169$1$1 ==.
                    000D   1484 	XG$ISR_ST$0$0 ==.
   063C 32                 1485 	reti
                           1486 ;	eliminated unneeded mov psw,# (no regs used in bank)
                           1487 ;	eliminated unneeded push/pop psw
                           1488 ;	eliminated unneeded push/pop dpl
                           1489 ;	eliminated unneeded push/pop dph
                           1490 ;	eliminated unneeded push/pop b
                           1491 ;	eliminated unneeded push/pop acc
                           1492 ;------------------------------------------------------------
                           1493 ;Allocation info for local variables in function 'switchToRCOSC'
                           1494 ;------------------------------------------------------------
                    000E   1495 	G$switchToRCOSC$0$0 ==.
                    000E   1496 	C$ydrip.c$171$1$1 ==.
                           1497 ;	apps/ydrip/ydrip.c:171: void switchToRCOSC(void) {
                           1498 ;	-----------------------------------------
                           1499 ;	 function switchToRCOSC
                           1500 ;	-----------------------------------------
   063D                    1501 _switchToRCOSC:
                    0007   1502 	ar7 = 0x07
                    0006   1503 	ar6 = 0x06
                    0005   1504 	ar5 = 0x05
                    0004   1505 	ar4 = 0x04
                    0003   1506 	ar3 = 0x03
                    0002   1507 	ar2 = 0x02
                    0001   1508 	ar1 = 0x01
                    0000   1509 	ar0 = 0x00
                    000E   1510 	C$ydrip.c$172$1$1 ==.
                           1511 ;	apps/ydrip/ydrip.c:172: SLEEP &= ~0x04;
   063D AF BE              1512 	mov	r7,_SLEEP
   063F 53 07 FB           1513 	anl	ar7,#0xFB
   0642 8F BE              1514 	mov	_SLEEP,r7
                    0015   1515 	C$ydrip.c$173$1$1 ==.
                           1516 ;	apps/ydrip/ydrip.c:173: while ( ! (SLEEP & 0x20) );
   0644                    1517 00101$:
   0644 E5 BE              1518 	mov	a,_SLEEP
   0646 30 E5 FB           1519 	jnb	acc.5,00101$
                    001A   1520 	C$ydrip.c$174$1$1 ==.
                           1521 ;	apps/ydrip/ydrip.c:174: CLKCON = (CLKCON & ~0x07) | 0x40 | 0x01;
   0649 AF C6              1522 	mov	r7,_CLKCON
   064B 74 F8              1523 	mov	a,#0xF8
   064D 5F                 1524 	anl	a,r7
   064E 44 41              1525 	orl	a,#0x41
   0650 FF                 1526 	mov	r7,a
   0651 8F C6              1527 	mov	_CLKCON,r7
                    0024   1528 	C$ydrip.c$175$1$1 ==.
                           1529 ;	apps/ydrip/ydrip.c:175: while ( !(CLKCON & 0x40) );
   0653                    1530 00104$:
   0653 E5 C6              1531 	mov	a,_CLKCON
   0655 30 E6 FB           1532 	jnb	acc.6,00104$
                    0029   1533 	C$ydrip.c$176$1$1 ==.
                           1534 ;	apps/ydrip/ydrip.c:176: SLEEP |= 0x04;
   0658 43 BE 04           1535 	orl	_SLEEP,#0x04
                    002C   1536 	C$ydrip.c$177$1$1 ==.
                    002C   1537 	XG$switchToRCOSC$0$0 ==.
   065B 22                 1538 	ret
                           1539 ;------------------------------------------------------------
                           1540 ;Allocation info for local variables in function 'uartEnable'
                           1541 ;------------------------------------------------------------
                    002D   1542 	G$uartEnable$0$0 ==.
                    002D   1543 	C$ydrip.c$179$1$1 ==.
                           1544 ;	apps/ydrip/ydrip.c:179: void uartEnable() {
                           1545 ;	-----------------------------------------
                           1546 ;	 function uartEnable
                           1547 ;	-----------------------------------------
   065C                    1548 _uartEnable:
                    002D   1549 	C$ydrip.c$181$1$1 ==.
                           1550 ;	apps/ydrip/ydrip.c:181: U1UCR &= ~0x40; //CTS/RTS Off
   065C AF FB              1551 	mov	r7,_U1UCR
   065E 53 07 BF           1552 	anl	ar7,#0xBF
   0661 8F FB              1553 	mov	_U1UCR,r7
                    0034   1554 	C$ydrip.c$182$1$1 ==.
                           1555 ;	apps/ydrip/ydrip.c:182: U1CSR |= 0x40;
   0663 43 F8 40           1556 	orl	_U1CSR,#0x40
                    0037   1557 	C$ydrip.c$183$1$1 ==.
                           1558 ;	apps/ydrip/ydrip.c:183: delayMs(100);
   0666 90 00 64           1559 	mov	dptr,#0x0064
   0669 12 4C EF           1560 	lcall	_delayMs
                    003D   1561 	C$ydrip.c$184$1$1 ==.
                    003D   1562 	XG$uartEnable$0$0 ==.
   066C 22                 1563 	ret
                           1564 ;------------------------------------------------------------
                           1565 ;Allocation info for local variables in function 'uartDisable'
                           1566 ;------------------------------------------------------------
                    003E   1567 	G$uartDisable$0$0 ==.
                    003E   1568 	C$ydrip.c$186$1$1 ==.
                           1569 ;	apps/ydrip/ydrip.c:186: void uartDisable() {
                           1570 ;	-----------------------------------------
                           1571 ;	 function uartDisable
                           1572 ;	-----------------------------------------
   066D                    1573 _uartDisable:
                    003E   1574 	C$ydrip.c$187$1$1 ==.
                           1575 ;	apps/ydrip/ydrip.c:187: delayMs(100);
   066D 90 00 64           1576 	mov	dptr,#0x0064
   0670 12 4C EF           1577 	lcall	_delayMs
                    0044   1578 	C$ydrip.c$188$1$1 ==.
                           1579 ;	apps/ydrip/ydrip.c:188: U1UCR &= ~0x40; //CTS/RTS Off
   0673 AF FB              1580 	mov	r7,_U1UCR
   0675 53 07 BF           1581 	anl	ar7,#0xBF
   0678 8F FB              1582 	mov	_U1UCR,r7
                    004B   1583 	C$ydrip.c$189$1$1 ==.
                           1584 ;	apps/ydrip/ydrip.c:189: U1CSR &= ~0x40; // Receiver disable
   067A AF F8              1585 	mov	r7,_U1CSR
   067C 53 07 BF           1586 	anl	ar7,#0xBF
   067F 8F F8              1587 	mov	_U1CSR,r7
                    0052   1588 	C$ydrip.c$190$1$1 ==.
                    0052   1589 	XG$uartDisable$0$0 ==.
   0681 22                 1590 	ret
                           1591 ;------------------------------------------------------------
                           1592 ;Allocation info for local variables in function 'blink_yellow_led'
                           1593 ;------------------------------------------------------------
                    0053   1594 	G$blink_yellow_led$0$0 ==.
                    0053   1595 	C$ydrip.c$192$1$1 ==.
                           1596 ;	apps/ydrip/ydrip.c:192: void blink_yellow_led() {
                           1597 ;	-----------------------------------------
                           1598 ;	 function blink_yellow_led
                           1599 ;	-----------------------------------------
   0682                    1600 _blink_yellow_led:
                    0053   1601 	C$ydrip.c$193$1$1 ==.
                           1602 ;	apps/ydrip/ydrip.c:193: if(status_lights) {
   0682 30 01 37           1603 	jnb	_status_lights,00103$
                    0056   1604 	C$ydrip.c$194$3$3 ==.
                           1605 ;	apps/ydrip/ydrip.c:194: LED_YELLOW(((getMs()/250) % 2));//Blink quarter seconds
   0685 12 4C C3           1606 	lcall	_getMs
   0688 AC 82              1607 	mov	r4,dpl
   068A AD 83              1608 	mov	r5,dph
   068C AE F0              1609 	mov	r6,b
   068E FF                 1610 	mov	r7,a
   068F 78 67              1611 	mov	r0,#__divulong_PARM_2
   0691 74 FA              1612 	mov	a,#0xFA
   0693 F2                 1613 	movx	@r0,a
   0694 08                 1614 	inc	r0
   0695 E4                 1615 	clr	a
   0696 F2                 1616 	movx	@r0,a
   0697 08                 1617 	inc	r0
   0698 F2                 1618 	movx	@r0,a
   0699 08                 1619 	inc	r0
   069A F2                 1620 	movx	@r0,a
   069B 8C 82              1621 	mov	dpl,r4
   069D 8D 83              1622 	mov	dph,r5
   069F 8E F0              1623 	mov	b,r6
   06A1 EF                 1624 	mov	a,r7
   06A2 12 32 48           1625 	lcall	__divulong
   06A5 AC 82              1626 	mov	r4,dpl
   06A7 AD 83              1627 	mov	r5,dph
   06A9 AE F0              1628 	mov	r6,b
   06AB FF                 1629 	mov	r7,a
   06AC EC                 1630 	mov	a,r4
   06AD 30 E0 05           1631 	jnb	acc.0,00105$
   06B0 43 FF 04           1632 	orl	_P2DIR,#0x04
   06B3 80 07              1633 	sjmp	00103$
   06B5                    1634 00105$:
   06B5 AF FF              1635 	mov	r7,_P2DIR
   06B7 53 07 FB           1636 	anl	ar7,#0xFB
   06BA 8F FF              1637 	mov	_P2DIR,r7
   06BC                    1638 00103$:
                    008D   1639 	C$ydrip.c$196$3$1 ==.
                    008D   1640 	XG$blink_yellow_led$0$0 ==.
   06BC 22                 1641 	ret
                           1642 ;------------------------------------------------------------
                           1643 ;Allocation info for local variables in function 'blink_red_led'
                           1644 ;------------------------------------------------------------
                    008E   1645 	G$blink_red_led$0$0 ==.
                    008E   1646 	C$ydrip.c$198$3$1 ==.
                           1647 ;	apps/ydrip/ydrip.c:198: void blink_red_led() {
                           1648 ;	-----------------------------------------
                           1649 ;	 function blink_red_led
                           1650 ;	-----------------------------------------
   06BD                    1651 _blink_red_led:
                    008E   1652 	C$ydrip.c$199$1$1 ==.
                           1653 ;	apps/ydrip/ydrip.c:199: if(status_lights) {
   06BD 30 01 39           1654 	jnb	_status_lights,00103$
                    0091   1655 	C$ydrip.c$200$3$3 ==.
                           1656 ;	apps/ydrip/ydrip.c:200: LED_RED(((getMs()/500) % 2));//Blink half seconds
   06C0 12 4C C3           1657 	lcall	_getMs
   06C3 AC 82              1658 	mov	r4,dpl
   06C5 AD 83              1659 	mov	r5,dph
   06C7 AE F0              1660 	mov	r6,b
   06C9 FF                 1661 	mov	r7,a
   06CA 78 67              1662 	mov	r0,#__divulong_PARM_2
   06CC 74 F4              1663 	mov	a,#0xF4
   06CE F2                 1664 	movx	@r0,a
   06CF 08                 1665 	inc	r0
   06D0 74 01              1666 	mov	a,#0x01
   06D2 F2                 1667 	movx	@r0,a
   06D3 08                 1668 	inc	r0
   06D4 E4                 1669 	clr	a
   06D5 F2                 1670 	movx	@r0,a
   06D6 08                 1671 	inc	r0
   06D7 F2                 1672 	movx	@r0,a
   06D8 8C 82              1673 	mov	dpl,r4
   06DA 8D 83              1674 	mov	dph,r5
   06DC 8E F0              1675 	mov	b,r6
   06DE EF                 1676 	mov	a,r7
   06DF 12 32 48           1677 	lcall	__divulong
   06E2 AC 82              1678 	mov	r4,dpl
   06E4 AD 83              1679 	mov	r5,dph
   06E6 AE F0              1680 	mov	r6,b
   06E8 FF                 1681 	mov	r7,a
   06E9 EC                 1682 	mov	a,r4
   06EA 30 E0 05           1683 	jnb	acc.0,00105$
   06ED 43 FF 02           1684 	orl	_P2DIR,#0x02
   06F0 80 07              1685 	sjmp	00103$
   06F2                    1686 00105$:
   06F2 AF FF              1687 	mov	r7,_P2DIR
   06F4 53 07 FD           1688 	anl	ar7,#0xFD
   06F7 8F FF              1689 	mov	_P2DIR,r7
   06F9                    1690 00103$:
                    00CA   1691 	C$ydrip.c$202$3$1 ==.
                    00CA   1692 	XG$blink_red_led$0$0 ==.
   06F9 22                 1693 	ret
                           1694 ;------------------------------------------------------------
                           1695 ;Allocation info for local variables in function 'getPacketPassedChecksum'
                           1696 ;------------------------------------------------------------
                    00CB   1697 	G$getPacketPassedChecksum$0$0 ==.
                    00CB   1698 	C$ydrip.c$204$3$1 ==.
                           1699 ;	apps/ydrip/ydrip.c:204: uint8 getPacketPassedChecksum(Dexcom_packet* p) {
                           1700 ;	-----------------------------------------
                           1701 ;	 function getPacketPassedChecksum
                           1702 ;	-----------------------------------------
   06FA                    1703 _getPacketPassedChecksum:
   06FA AE 82              1704 	mov	r6,dpl
   06FC AF 83              1705 	mov	r7,dph
                    00CF   1706 	C$ydrip.c$205$1$1 ==.
                           1707 ;	apps/ydrip/ydrip.c:205: return ((p->LQI & 0x80)==0x80) ? 1:0;
   06FE 74 14              1708 	mov	a,#0x14
   0700 2E                 1709 	add	a,r6
   0701 F5 82              1710 	mov	dpl,a
   0703 E4                 1711 	clr	a
   0704 3F                 1712 	addc	a,r7
   0705 F5 83              1713 	mov	dph,a
   0707 E0                 1714 	movx	a,@dptr
   0708 FF                 1715 	mov	r7,a
   0709 53 07 80           1716 	anl	ar7,#0x80
   070C BF 80 04           1717 	cjne	r7,#0x80,00103$
   070F 7F 01              1718 	mov	r7,#0x01
   0711 80 02              1719 	sjmp	00104$
   0713                    1720 00103$:
   0713 7F 00              1721 	mov	r7,#0x00
   0715                    1722 00104$:
   0715 8F 82              1723 	mov	dpl,r7
                    00E8   1724 	C$ydrip.c$206$1$1 ==.
                    00E8   1725 	XG$getPacketPassedChecksum$0$0 ==.
   0717 22                 1726 	ret
                           1727 ;------------------------------------------------------------
                           1728 ;Allocation info for local variables in function 'bit_reverse_byte'
                           1729 ;------------------------------------------------------------
                           1730 ;bRet                      Allocated with name '_bit_reverse_byte_bRet_1_1'
                           1731 ;------------------------------------------------------------
                    00E9   1732 	G$bit_reverse_byte$0$0 ==.
                    00E9   1733 	C$ydrip.c$208$1$1 ==.
                           1734 ;	apps/ydrip/ydrip.c:208: uint8 bit_reverse_byte(uint8 in) {
                           1735 ;	-----------------------------------------
                           1736 ;	 function bit_reverse_byte
                           1737 ;	-----------------------------------------
   0718                    1738 _bit_reverse_byte:
   0718 AF 82              1739 	mov	r7,dpl
                    00EB   1740 	C$ydrip.c$209$1$1 ==.
                           1741 ;	apps/ydrip/ydrip.c:209: uint8 XDATA bRet = 0;
   071A 90 F0 FC           1742 	mov	dptr,#_bit_reverse_byte_bRet_1_1
   071D E4                 1743 	clr	a
   071E F0                 1744 	movx	@dptr,a
                    00F0   1745 	C$ydrip.c$210$1$1 ==.
                           1746 ;	apps/ydrip/ydrip.c:210: if(in & 0x01)
   071F EF                 1747 	mov	a,r7
   0720 30 E0 06           1748 	jnb	acc.0,00102$
                    00F4   1749 	C$ydrip.c$211$1$1 ==.
                           1750 ;	apps/ydrip/ydrip.c:211: bRet |= 0x80;
   0723 90 F0 FC           1751 	mov	dptr,#_bit_reverse_byte_bRet_1_1
   0726 74 80              1752 	mov	a,#0x80
   0728 F0                 1753 	movx	@dptr,a
   0729                    1754 00102$:
                    00FA   1755 	C$ydrip.c$212$1$1 ==.
                           1756 ;	apps/ydrip/ydrip.c:212: if(in & 0x02)
   0729 EF                 1757 	mov	a,r7
   072A 30 E1 08           1758 	jnb	acc.1,00104$
                    00FE   1759 	C$ydrip.c$213$1$1 ==.
                           1760 ;	apps/ydrip/ydrip.c:213: bRet |= 0x40;
   072D 90 F0 FC           1761 	mov	dptr,#_bit_reverse_byte_bRet_1_1
   0730 E0                 1762 	movx	a,@dptr
   0731 FE                 1763 	mov	r6,a
   0732 44 40              1764 	orl	a,#0x40
   0734 F0                 1765 	movx	@dptr,a
   0735                    1766 00104$:
                    0106   1767 	C$ydrip.c$214$1$1 ==.
                           1768 ;	apps/ydrip/ydrip.c:214: if(in & 0x04)
   0735 EF                 1769 	mov	a,r7
   0736 30 E2 08           1770 	jnb	acc.2,00106$
                    010A   1771 	C$ydrip.c$215$1$1 ==.
                           1772 ;	apps/ydrip/ydrip.c:215: bRet |= 0x20;
   0739 90 F0 FC           1773 	mov	dptr,#_bit_reverse_byte_bRet_1_1
   073C E0                 1774 	movx	a,@dptr
   073D FE                 1775 	mov	r6,a
   073E 44 20              1776 	orl	a,#0x20
   0740 F0                 1777 	movx	@dptr,a
   0741                    1778 00106$:
                    0112   1779 	C$ydrip.c$216$1$1 ==.
                           1780 ;	apps/ydrip/ydrip.c:216: if(in & 0x08)
   0741 EF                 1781 	mov	a,r7
   0742 30 E3 08           1782 	jnb	acc.3,00108$
                    0116   1783 	C$ydrip.c$217$1$1 ==.
                           1784 ;	apps/ydrip/ydrip.c:217: bRet |= 0x10;
   0745 90 F0 FC           1785 	mov	dptr,#_bit_reverse_byte_bRet_1_1
   0748 E0                 1786 	movx	a,@dptr
   0749 FE                 1787 	mov	r6,a
   074A 44 10              1788 	orl	a,#0x10
   074C F0                 1789 	movx	@dptr,a
   074D                    1790 00108$:
                    011E   1791 	C$ydrip.c$218$1$1 ==.
                           1792 ;	apps/ydrip/ydrip.c:218: if(in & 0x10)
   074D EF                 1793 	mov	a,r7
   074E 30 E4 08           1794 	jnb	acc.4,00110$
                    0122   1795 	C$ydrip.c$219$1$1 ==.
                           1796 ;	apps/ydrip/ydrip.c:219: bRet |= 0x08;
   0751 90 F0 FC           1797 	mov	dptr,#_bit_reverse_byte_bRet_1_1
   0754 E0                 1798 	movx	a,@dptr
   0755 FE                 1799 	mov	r6,a
   0756 44 08              1800 	orl	a,#0x08
   0758 F0                 1801 	movx	@dptr,a
   0759                    1802 00110$:
                    012A   1803 	C$ydrip.c$220$1$1 ==.
                           1804 ;	apps/ydrip/ydrip.c:220: if(in & 0x20)
   0759 EF                 1805 	mov	a,r7
   075A 30 E5 08           1806 	jnb	acc.5,00112$
                    012E   1807 	C$ydrip.c$221$1$1 ==.
                           1808 ;	apps/ydrip/ydrip.c:221: bRet |= 0x04;
   075D 90 F0 FC           1809 	mov	dptr,#_bit_reverse_byte_bRet_1_1
   0760 E0                 1810 	movx	a,@dptr
   0761 FE                 1811 	mov	r6,a
   0762 44 04              1812 	orl	a,#0x04
   0764 F0                 1813 	movx	@dptr,a
   0765                    1814 00112$:
                    0136   1815 	C$ydrip.c$222$1$1 ==.
                           1816 ;	apps/ydrip/ydrip.c:222: if(in & 0x40)
   0765 EF                 1817 	mov	a,r7
   0766 30 E6 08           1818 	jnb	acc.6,00114$
                    013A   1819 	C$ydrip.c$223$1$1 ==.
                           1820 ;	apps/ydrip/ydrip.c:223: bRet |= 0x02;
   0769 90 F0 FC           1821 	mov	dptr,#_bit_reverse_byte_bRet_1_1
   076C E0                 1822 	movx	a,@dptr
   076D FE                 1823 	mov	r6,a
   076E 44 02              1824 	orl	a,#0x02
   0770 F0                 1825 	movx	@dptr,a
   0771                    1826 00114$:
                    0142   1827 	C$ydrip.c$224$1$1 ==.
                           1828 ;	apps/ydrip/ydrip.c:224: if(in & 0x80)
   0771 EF                 1829 	mov	a,r7
   0772 30 E7 08           1830 	jnb	acc.7,00116$
                    0146   1831 	C$ydrip.c$225$1$1 ==.
                           1832 ;	apps/ydrip/ydrip.c:225: bRet |= 0x01;
   0775 90 F0 FC           1833 	mov	dptr,#_bit_reverse_byte_bRet_1_1
   0778 E0                 1834 	movx	a,@dptr
   0779 FF                 1835 	mov	r7,a
   077A 44 01              1836 	orl	a,#0x01
   077C F0                 1837 	movx	@dptr,a
   077D                    1838 00116$:
                    014E   1839 	C$ydrip.c$226$1$1 ==.
                           1840 ;	apps/ydrip/ydrip.c:226: return bRet;
   077D 90 F0 FC           1841 	mov	dptr,#_bit_reverse_byte_bRet_1_1
   0780 E0                 1842 	movx	a,@dptr
                    0152   1843 	C$ydrip.c$227$1$1 ==.
                    0152   1844 	XG$bit_reverse_byte$0$0 ==.
   0781 F5 82              1845 	mov	dpl,a
   0783 22                 1846 	ret
                           1847 ;------------------------------------------------------------
                           1848 ;Allocation info for local variables in function 'min8'
                           1849 ;------------------------------------------------------------
                    0155   1850 	G$min8$0$0 ==.
                    0155   1851 	C$ydrip.c$229$1$1 ==.
                           1852 ;	apps/ydrip/ydrip.c:229: uint8 min8(uint8 a, uint8 b) {
                           1853 ;	-----------------------------------------
                           1854 ;	 function min8
                           1855 ;	-----------------------------------------
   0784                    1856 _min8:
   0784 AF 82              1857 	mov	r7,dpl
                    0157   1858 	C$ydrip.c$230$1$1 ==.
                           1859 ;	apps/ydrip/ydrip.c:230: if(a < b) return a;
   0786 78 40              1860 	mov	r0,#_min8_PARM_2
   0788 C3                 1861 	clr	c
   0789 E2                 1862 	movx	a,@r0
   078A F5 F0              1863 	mov	b,a
   078C EF                 1864 	mov	a,r7
   078D 95 F0              1865 	subb	a,b
   078F 50 04              1866 	jnc	00102$
   0791 8F 82              1867 	mov	dpl,r7
   0793 80 05              1868 	sjmp	00103$
   0795                    1869 00102$:
                    0166   1870 	C$ydrip.c$231$1$1 ==.
                           1871 ;	apps/ydrip/ydrip.c:231: return b;
   0795 78 40              1872 	mov	r0,#_min8_PARM_2
   0797 E2                 1873 	movx	a,@r0
   0798 F5 82              1874 	mov	dpl,a
   079A                    1875 00103$:
                    016B   1876 	C$ydrip.c$232$1$1 ==.
                    016B   1877 	XG$min8$0$0 ==.
   079A 22                 1878 	ret
                           1879 ;------------------------------------------------------------
                           1880 ;Allocation info for local variables in function 'bit_reverse_bytes'
                           1881 ;------------------------------------------------------------
                           1882 ;i                         Allocated with name '_bit_reverse_bytes_i_1_1'
                           1883 ;------------------------------------------------------------
                    016C   1884 	G$bit_reverse_bytes$0$0 ==.
                    016C   1885 	C$ydrip.c$234$1$1 ==.
                           1886 ;	apps/ydrip/ydrip.c:234: void bit_reverse_bytes(uint8* buf, uint8 nLen) {
                           1887 ;	-----------------------------------------
                           1888 ;	 function bit_reverse_bytes
                           1889 ;	-----------------------------------------
   079B                    1890 _bit_reverse_bytes:
   079B AF F0              1891 	mov	r7,b
   079D AE 83              1892 	mov	r6,dph
   079F E5 82              1893 	mov	a,dpl
   07A1 78 42              1894 	mov	r0,#_bit_reverse_bytes_buf_1_1
   07A3 F2                 1895 	movx	@r0,a
   07A4 08                 1896 	inc	r0
   07A5 EE                 1897 	mov	a,r6
   07A6 F2                 1898 	movx	@r0,a
   07A7 08                 1899 	inc	r0
   07A8 EF                 1900 	mov	a,r7
   07A9 F2                 1901 	movx	@r0,a
                    017B   1902 	C$ydrip.c$235$1$1 ==.
                           1903 ;	apps/ydrip/ydrip.c:235: uint8 XDATA i = 0;
   07AA 7C 00              1904 	mov	r4,#0x00
   07AC                    1905 00101$:
                    017D   1906 	C$ydrip.c$236$1$1 ==.
                           1907 ;	apps/ydrip/ydrip.c:236: for(; i < nLen; i++) {
   07AC 78 41              1908 	mov	r0,#_bit_reverse_bytes_PARM_2
   07AE C3                 1909 	clr	c
   07AF E2                 1910 	movx	a,@r0
   07B0 F5 F0              1911 	mov	b,a
   07B2 EC                 1912 	mov	a,r4
   07B3 95 F0              1913 	subb	a,b
   07B5 50 3A              1914 	jnc	00105$
                    0188   1915 	C$ydrip.c$237$2$2 ==.
                           1916 ;	apps/ydrip/ydrip.c:237: buf[i] = bit_reverse_byte(buf[i]);
   07B7 78 42              1917 	mov	r0,#_bit_reverse_bytes_buf_1_1
   07B9 E2                 1918 	movx	a,@r0
   07BA 2C                 1919 	add	a,r4
   07BB FA                 1920 	mov	r2,a
   07BC 08                 1921 	inc	r0
   07BD E2                 1922 	movx	a,@r0
   07BE 34 00              1923 	addc	a,#0x00
   07C0 FB                 1924 	mov	r3,a
   07C1 08                 1925 	inc	r0
   07C2 E2                 1926 	movx	a,@r0
   07C3 FF                 1927 	mov	r7,a
   07C4 8A 82              1928 	mov	dpl,r2
   07C6 8B 83              1929 	mov	dph,r3
   07C8 8F F0              1930 	mov	b,r7
   07CA 12 5B FF           1931 	lcall	__gptrget
   07CD F5 82              1932 	mov	dpl,a
   07CF C0 07              1933 	push	ar7
   07D1 C0 04              1934 	push	ar4
   07D3 C0 03              1935 	push	ar3
   07D5 C0 02              1936 	push	ar2
   07D7 12 07 18           1937 	lcall	_bit_reverse_byte
   07DA AE 82              1938 	mov	r6,dpl
   07DC D0 02              1939 	pop	ar2
   07DE D0 03              1940 	pop	ar3
   07E0 D0 04              1941 	pop	ar4
   07E2 D0 07              1942 	pop	ar7
   07E4 8A 82              1943 	mov	dpl,r2
   07E6 8B 83              1944 	mov	dph,r3
   07E8 8F F0              1945 	mov	b,r7
   07EA EE                 1946 	mov	a,r6
   07EB 12 37 7E           1947 	lcall	__gptrput
                    01BF   1948 	C$ydrip.c$236$1$1 ==.
                           1949 ;	apps/ydrip/ydrip.c:236: for(; i < nLen; i++) {
   07EE 0C                 1950 	inc	r4
   07EF 80 BB              1951 	sjmp	00101$
   07F1                    1952 00105$:
                    01C2   1953 	C$ydrip.c$239$1$1 ==.
                    01C2   1954 	XG$bit_reverse_bytes$0$0 ==.
   07F1 22                 1955 	ret
                           1956 ;------------------------------------------------------------
                           1957 ;Allocation info for local variables in function 'dex_num_decoder'
                           1958 ;------------------------------------------------------------
                           1959 ;usReversed                Allocated with name '_dex_num_decoder_usReversed_1_1'
                           1960 ;usExponent                Allocated with name '_dex_num_decoder_usExponent_1_1'
                           1961 ;usMantissa                Allocated with name '_dex_num_decoder_usMantissa_1_1'
                           1962 ;------------------------------------------------------------
                    01C3   1963 	G$dex_num_decoder$0$0 ==.
                    01C3   1964 	C$ydrip.c$241$1$1 ==.
                           1965 ;	apps/ydrip/ydrip.c:241: uint32 dex_num_decoder(uint16 usShortFloat) {
                           1966 ;	-----------------------------------------
                           1967 ;	 function dex_num_decoder
                           1968 ;	-----------------------------------------
   07F2                    1969 _dex_num_decoder:
   07F2 AE 82              1970 	mov	r6,dpl
   07F4 AF 83              1971 	mov	r7,dph
                    01C7   1972 	C$ydrip.c$242$1$1 ==.
                           1973 ;	apps/ydrip/ydrip.c:242: uint16 XDATA usReversed = usShortFloat;
   07F6 90 F0 FD           1974 	mov	dptr,#_dex_num_decoder_usReversed_1_1
   07F9 EE                 1975 	mov	a,r6
   07FA F0                 1976 	movx	@dptr,a
   07FB A3                 1977 	inc	dptr
   07FC EF                 1978 	mov	a,r7
   07FD F0                 1979 	movx	@dptr,a
                    01CF   1980 	C$ydrip.c$245$1$1 ==.
                           1981 ;	apps/ydrip/ydrip.c:245: bit_reverse_bytes((uint8*)&usReversed, 2);
   07FE 7E FD              1982 	mov	r6,#_dex_num_decoder_usReversed_1_1
   0800 7F F0              1983 	mov	r7,#(_dex_num_decoder_usReversed_1_1 >> 8)
   0802 7D 00              1984 	mov	r5,#0x00
   0804 78 41              1985 	mov	r0,#_bit_reverse_bytes_PARM_2
   0806 74 02              1986 	mov	a,#0x02
   0808 F2                 1987 	movx	@r0,a
   0809 8E 82              1988 	mov	dpl,r6
   080B 8F 83              1989 	mov	dph,r7
   080D 8D F0              1990 	mov	b,r5
   080F 12 07 9B           1991 	lcall	_bit_reverse_bytes
                    01E3   1992 	C$ydrip.c$246$1$1 ==.
                           1993 ;	apps/ydrip/ydrip.c:246: usExponent = ((usReversed & 0xE000) >> 13);
   0812 90 F0 FD           1994 	mov	dptr,#_dex_num_decoder_usReversed_1_1
   0815 E0                 1995 	movx	a,@dptr
   0816 FE                 1996 	mov	r6,a
   0817 A3                 1997 	inc	dptr
   0818 E0                 1998 	movx	a,@dptr
   0819 FF                 1999 	mov	r7,a
   081A 74 E0              2000 	mov	a,#0xE0
   081C 5F                 2001 	anl	a,r7
   081D C4                 2002 	swap	a
   081E 03                 2003 	rr	a
   081F 54 07              2004 	anl	a,#0x07
   0821 FC                 2005 	mov	r4,a
                    01F3   2006 	C$ydrip.c$247$1$1 ==.
                           2007 ;	apps/ydrip/ydrip.c:247: usMantissa = (usReversed & 0x1FFF);
   0822 53 07 1F           2008 	anl	ar7,#0x1F
   0825 7D 00              2009 	mov	r5,#0x00
   0827 7B 00              2010 	mov	r3,#0x00
                    01FA   2011 	C$ydrip.c$248$1$1 ==.
                           2012 ;	apps/ydrip/ydrip.c:248: return usMantissa << usExponent;
   0829 8C F0              2013 	mov	b,r4
   082B 05 F0              2014 	inc	b
   082D 80 0C              2015 	sjmp	00104$
   082F                    2016 00103$:
   082F EE                 2017 	mov	a,r6
   0830 2E                 2018 	add	a,r6
   0831 FE                 2019 	mov	r6,a
   0832 EF                 2020 	mov	a,r7
   0833 33                 2021 	rlc	a
   0834 FF                 2022 	mov	r7,a
   0835 ED                 2023 	mov	a,r5
   0836 33                 2024 	rlc	a
   0837 FD                 2025 	mov	r5,a
   0838 EB                 2026 	mov	a,r3
   0839 33                 2027 	rlc	a
   083A FB                 2028 	mov	r3,a
   083B                    2029 00104$:
   083B D5 F0 F1           2030 	djnz	b,00103$
   083E 8E 82              2031 	mov	dpl,r6
   0840 8F 83              2032 	mov	dph,r7
   0842 8D F0              2033 	mov	b,r5
   0844 EB                 2034 	mov	a,r3
                    0216   2035 	C$ydrip.c$249$1$1 ==.
                    0216   2036 	XG$dex_num_decoder$0$0 ==.
   0845 22                 2037 	ret
                           2038 ;------------------------------------------------------------
                           2039 ;Allocation info for local variables in function 'dexcom_src_to_ascii'
                           2040 ;------------------------------------------------------------
                           2041 ;addr                      Allocated with name '_dexcom_src_to_ascii_PARM_2'
                           2042 ;src                       Allocated with name '_dexcom_src_to_ascii_src_1_1'
                           2043 ;sloc0                     Allocated with name '_dexcom_src_to_ascii_sloc0_1_0'
                           2044 ;------------------------------------------------------------
                    0217   2045 	G$dexcom_src_to_ascii$0$0 ==.
                    0217   2046 	C$ydrip.c$256$1$1 ==.
                           2047 ;	apps/ydrip/ydrip.c:256: void dexcom_src_to_ascii(XDATA uint32 src, XDATA char addr[6]) {
                           2048 ;	-----------------------------------------
                           2049 ;	 function dexcom_src_to_ascii
                           2050 ;	-----------------------------------------
   0846                    2051 _dexcom_src_to_ascii:
   0846 AF 82              2052 	mov	r7,dpl
   0848 AE 83              2053 	mov	r6,dph
   084A AD F0              2054 	mov	r5,b
   084C FC                 2055 	mov	r4,a
   084D 90 F1 01           2056 	mov	dptr,#_dexcom_src_to_ascii_src_1_1
   0850 EF                 2057 	mov	a,r7
   0851 F0                 2058 	movx	@dptr,a
   0852 A3                 2059 	inc	dptr
   0853 EE                 2060 	mov	a,r6
   0854 F0                 2061 	movx	@dptr,a
   0855 A3                 2062 	inc	dptr
   0856 ED                 2063 	mov	a,r5
   0857 F0                 2064 	movx	@dptr,a
   0858 A3                 2065 	inc	dptr
   0859 EC                 2066 	mov	a,r4
   085A F0                 2067 	movx	@dptr,a
                    022C   2068 	C$ydrip.c$257$1$1 ==.
                           2069 ;	apps/ydrip/ydrip.c:257: addr[0] = SrcNameTable[(src >> 20) & 0x1F];
   085B 90 F0 FF           2070 	mov	dptr,#_dexcom_src_to_ascii_PARM_2
   085E E0                 2071 	movx	a,@dptr
   085F FE                 2072 	mov	r6,a
   0860 A3                 2073 	inc	dptr
   0861 E0                 2074 	movx	a,@dptr
   0862 FF                 2075 	mov	r7,a
   0863 90 F1 01           2076 	mov	dptr,#_dexcom_src_to_ascii_src_1_1
   0866 E0                 2077 	movx	a,@dptr
   0867 F5 75              2078 	mov	_dexcom_src_to_ascii_sloc0_1_0,a
   0869 A3                 2079 	inc	dptr
   086A E0                 2080 	movx	a,@dptr
   086B F5 76              2081 	mov	(_dexcom_src_to_ascii_sloc0_1_0 + 1),a
   086D A3                 2082 	inc	dptr
   086E E0                 2083 	movx	a,@dptr
   086F F5 77              2084 	mov	(_dexcom_src_to_ascii_sloc0_1_0 + 2),a
   0871 A3                 2085 	inc	dptr
   0872 E0                 2086 	movx	a,@dptr
   0873 F5 78              2087 	mov	(_dexcom_src_to_ascii_sloc0_1_0 + 3),a
   0875 A8 77              2088 	mov	r0,(_dexcom_src_to_ascii_sloc0_1_0 + 2)
   0877 C4                 2089 	swap	a
   0878 C8                 2090 	xch	a,r0
   0879 C4                 2091 	swap	a
   087A 54 0F              2092 	anl	a,#0x0F
   087C 68                 2093 	xrl	a,r0
   087D C8                 2094 	xch	a,r0
   087E 54 0F              2095 	anl	a,#0x0F
   0880 C8                 2096 	xch	a,r0
   0881 68                 2097 	xrl	a,r0
   0882 C8                 2098 	xch	a,r0
   0883 53 00 1F           2099 	anl	ar0,#0x1F
   0886 E4                 2100 	clr	a
   0887 F9                 2101 	mov	r1,a
   0888 E8                 2102 	mov	a,r0
   0889 24 78              2103 	add	a,#_SrcNameTable
   088B F5 82              2104 	mov	dpl,a
   088D E9                 2105 	mov	a,r1
   088E 34 F8              2106 	addc	a,#(_SrcNameTable >> 8)
   0890 F5 83              2107 	mov	dph,a
   0892 E0                 2108 	movx	a,@dptr
   0893 8E 82              2109 	mov	dpl,r6
   0895 8F 83              2110 	mov	dph,r7
   0897 F0                 2111 	movx	@dptr,a
                    0269   2112 	C$ydrip.c$258$1$1 ==.
                           2113 ;	apps/ydrip/ydrip.c:258: addr[1] = SrcNameTable[(src >> 15) & 0x1F];
   0898 74 01              2114 	mov	a,#0x01
   089A 2E                 2115 	add	a,r6
   089B FC                 2116 	mov	r4,a
   089C E4                 2117 	clr	a
   089D 3F                 2118 	addc	a,r7
   089E FD                 2119 	mov	r5,a
   089F A8 76              2120 	mov	r0,(_dexcom_src_to_ascii_sloc0_1_0 + 1)
   08A1 E5 77              2121 	mov	a,(_dexcom_src_to_ascii_sloc0_1_0 + 2)
   08A3 A2 E7              2122 	mov	c,acc.7
   08A5 C8                 2123 	xch	a,r0
   08A6 33                 2124 	rlc	a
   08A7 C8                 2125 	xch	a,r0
   08A8 33                 2126 	rlc	a
   08A9 C8                 2127 	xch	a,r0
   08AA 54 01              2128 	anl	a,#0x01
   08AC F9                 2129 	mov	r1,a
   08AD E5 78              2130 	mov	a,(_dexcom_src_to_ascii_sloc0_1_0 + 3)
   08AF 25 78              2131 	add	a,(_dexcom_src_to_ascii_sloc0_1_0 + 3)
   08B1 49                 2132 	orl	a,r1
   08B2 E5 78              2133 	mov	a,(_dexcom_src_to_ascii_sloc0_1_0 + 3)
   08B4 23                 2134 	rl	a
   08B5 54 01              2135 	anl	a,#0x01
   08B7 53 00 1F           2136 	anl	ar0,#0x1F
   08BA E4                 2137 	clr	a
   08BB F9                 2138 	mov	r1,a
   08BC E8                 2139 	mov	a,r0
   08BD 24 78              2140 	add	a,#_SrcNameTable
   08BF F5 82              2141 	mov	dpl,a
   08C1 E9                 2142 	mov	a,r1
   08C2 34 F8              2143 	addc	a,#(_SrcNameTable >> 8)
   08C4 F5 83              2144 	mov	dph,a
   08C6 E0                 2145 	movx	a,@dptr
   08C7 8C 82              2146 	mov	dpl,r4
   08C9 8D 83              2147 	mov	dph,r5
   08CB F0                 2148 	movx	@dptr,a
                    029D   2149 	C$ydrip.c$259$1$1 ==.
                           2150 ;	apps/ydrip/ydrip.c:259: addr[2] = SrcNameTable[(src >> 10) & 0x1F];
   08CC 74 02              2151 	mov	a,#0x02
   08CE 2E                 2152 	add	a,r6
   08CF FC                 2153 	mov	r4,a
   08D0 E4                 2154 	clr	a
   08D1 3F                 2155 	addc	a,r7
   08D2 FD                 2156 	mov	r5,a
   08D3 A8 76              2157 	mov	r0,(_dexcom_src_to_ascii_sloc0_1_0 + 1)
   08D5 E5 77              2158 	mov	a,(_dexcom_src_to_ascii_sloc0_1_0 + 2)
   08D7 C3                 2159 	clr	c
   08D8 13                 2160 	rrc	a
   08D9 C8                 2161 	xch	a,r0
   08DA 13                 2162 	rrc	a
   08DB C8                 2163 	xch	a,r0
   08DC C3                 2164 	clr	c
   08DD 13                 2165 	rrc	a
   08DE C8                 2166 	xch	a,r0
   08DF 13                 2167 	rrc	a
   08E0 C8                 2168 	xch	a,r0
   08E1 F9                 2169 	mov	r1,a
   08E2 E5 78              2170 	mov	a,(_dexcom_src_to_ascii_sloc0_1_0 + 3)
   08E4 03                 2171 	rr	a
   08E5 03                 2172 	rr	a
   08E6 54 C0              2173 	anl	a,#0xC0
   08E8 49                 2174 	orl	a,r1
   08E9 E5 78              2175 	mov	a,(_dexcom_src_to_ascii_sloc0_1_0 + 3)
   08EB 03                 2176 	rr	a
   08EC 03                 2177 	rr	a
   08ED 54 3F              2178 	anl	a,#0x3F
   08EF 53 00 1F           2179 	anl	ar0,#0x1F
   08F2 E4                 2180 	clr	a
   08F3 F9                 2181 	mov	r1,a
   08F4 E8                 2182 	mov	a,r0
   08F5 24 78              2183 	add	a,#_SrcNameTable
   08F7 F5 82              2184 	mov	dpl,a
   08F9 E9                 2185 	mov	a,r1
   08FA 34 F8              2186 	addc	a,#(_SrcNameTable >> 8)
   08FC F5 83              2187 	mov	dph,a
   08FE E0                 2188 	movx	a,@dptr
   08FF 8C 82              2189 	mov	dpl,r4
   0901 8D 83              2190 	mov	dph,r5
   0903 F0                 2191 	movx	@dptr,a
                    02D5   2192 	C$ydrip.c$260$1$1 ==.
                           2193 ;	apps/ydrip/ydrip.c:260: addr[3] = SrcNameTable[(src >> 5) & 0x1F];
   0904 74 03              2194 	mov	a,#0x03
   0906 2E                 2195 	add	a,r6
   0907 FC                 2196 	mov	r4,a
   0908 E4                 2197 	clr	a
   0909 3F                 2198 	addc	a,r7
   090A FD                 2199 	mov	r5,a
   090B A8 75              2200 	mov	r0,_dexcom_src_to_ascii_sloc0_1_0
   090D E5 76              2201 	mov	a,(_dexcom_src_to_ascii_sloc0_1_0 + 1)
   090F C4                 2202 	swap	a
   0910 03                 2203 	rr	a
   0911 C8                 2204 	xch	a,r0
   0912 C4                 2205 	swap	a
   0913 03                 2206 	rr	a
   0914 54 07              2207 	anl	a,#0x07
   0916 68                 2208 	xrl	a,r0
   0917 C8                 2209 	xch	a,r0
   0918 54 07              2210 	anl	a,#0x07
   091A C8                 2211 	xch	a,r0
   091B 68                 2212 	xrl	a,r0
   091C C8                 2213 	xch	a,r0
   091D F9                 2214 	mov	r1,a
   091E E5 77              2215 	mov	a,(_dexcom_src_to_ascii_sloc0_1_0 + 2)
   0920 C4                 2216 	swap	a
   0921 03                 2217 	rr	a
   0922 54 F8              2218 	anl	a,#0xF8
   0924 49                 2219 	orl	a,r1
   0925 AA 77              2220 	mov	r2,(_dexcom_src_to_ascii_sloc0_1_0 + 2)
   0927 E5 78              2221 	mov	a,(_dexcom_src_to_ascii_sloc0_1_0 + 3)
   0929 C4                 2222 	swap	a
   092A 03                 2223 	rr	a
   092B CA                 2224 	xch	a,r2
   092C C4                 2225 	swap	a
   092D 03                 2226 	rr	a
   092E 54 07              2227 	anl	a,#0x07
   0930 6A                 2228 	xrl	a,r2
   0931 CA                 2229 	xch	a,r2
   0932 54 07              2230 	anl	a,#0x07
   0934 CA                 2231 	xch	a,r2
   0935 6A                 2232 	xrl	a,r2
   0936 CA                 2233 	xch	a,r2
   0937 53 00 1F           2234 	anl	ar0,#0x1F
   093A E4                 2235 	clr	a
   093B F9                 2236 	mov	r1,a
   093C E8                 2237 	mov	a,r0
   093D 24 78              2238 	add	a,#_SrcNameTable
   093F F5 82              2239 	mov	dpl,a
   0941 E9                 2240 	mov	a,r1
   0942 34 F8              2241 	addc	a,#(_SrcNameTable >> 8)
   0944 F5 83              2242 	mov	dph,a
   0946 E0                 2243 	movx	a,@dptr
   0947 8C 82              2244 	mov	dpl,r4
   0949 8D 83              2245 	mov	dph,r5
   094B F0                 2246 	movx	@dptr,a
                    031D   2247 	C$ydrip.c$261$1$1 ==.
                           2248 ;	apps/ydrip/ydrip.c:261: addr[4] = SrcNameTable[(src >> 0) & 0x1F];
   094C 74 04              2249 	mov	a,#0x04
   094E 2E                 2250 	add	a,r6
   094F FC                 2251 	mov	r4,a
   0950 E4                 2252 	clr	a
   0951 3F                 2253 	addc	a,r7
   0952 FD                 2254 	mov	r5,a
   0953 A8 75              2255 	mov	r0,_dexcom_src_to_ascii_sloc0_1_0
   0955 53 00 1F           2256 	anl	ar0,#0x1F
   0958 E4                 2257 	clr	a
   0959 F9                 2258 	mov	r1,a
   095A E8                 2259 	mov	a,r0
   095B 24 78              2260 	add	a,#_SrcNameTable
   095D F5 82              2261 	mov	dpl,a
   095F E9                 2262 	mov	a,r1
   0960 34 F8              2263 	addc	a,#(_SrcNameTable >> 8)
   0962 F5 83              2264 	mov	dph,a
   0964 E0                 2265 	movx	a,@dptr
   0965 8C 82              2266 	mov	dpl,r4
   0967 8D 83              2267 	mov	dph,r5
   0969 F0                 2268 	movx	@dptr,a
                    033B   2269 	C$ydrip.c$262$1$1 ==.
                           2270 ;	apps/ydrip/ydrip.c:262: addr[5] = 0;
   096A 8E 82              2271 	mov	dpl,r6
   096C 8F 83              2272 	mov	dph,r7
   096E A3                 2273 	inc	dptr
   096F A3                 2274 	inc	dptr
   0970 A3                 2275 	inc	dptr
   0971 A3                 2276 	inc	dptr
   0972 A3                 2277 	inc	dptr
   0973 E4                 2278 	clr	a
   0974 F0                 2279 	movx	@dptr,a
                    0346   2280 	C$ydrip.c$263$1$1 ==.
                    0346   2281 	XG$dexcom_src_to_ascii$0$0 ==.
   0975 22                 2282 	ret
                           2283 ;------------------------------------------------------------
                           2284 ;Allocation info for local variables in function 'clearRxErrors'
                           2285 ;------------------------------------------------------------
                    0347   2286 	G$clearRxErrors$0$0 ==.
                    0347   2287 	C$ydrip.c$265$1$1 ==.
                           2288 ;	apps/ydrip/ydrip.c:265: void clearRxErrors() {	
                           2289 ;	-----------------------------------------
                           2290 ;	 function clearRxErrors
                           2291 ;	-----------------------------------------
   0976                    2292 _clearRxErrors:
                    0347   2293 	C$ydrip.c$266$1$1 ==.
                           2294 ;	apps/ydrip/ydrip.c:266: if (uart1RxBufferFullOccurred)
                    0347   2295 	C$ydrip.c$267$2$2 ==.
                           2296 ;	apps/ydrip/ydrip.c:267: {   uart1RxBufferFullOccurred = 0;							// Clear Buffer Full Errors
   0976 10 0B 02           2297 	jbc	_uart1RxBufferFullOccurred,00112$
   0979 80 06              2298 	sjmp	00102$
   097B                    2299 00112$:
                    034C   2300 	C$ydrip.c$268$3$3 ==.
                           2301 ;	apps/ydrip/ydrip.c:268: LED_RED(1);												// Error Indicator
   097B 43 FF 02           2302 	orl	_P2DIR,#0x02
                    034F   2303 	C$ydrip.c$269$3$4 ==.
                           2304 ;	apps/ydrip/ydrip.c:269: LED_YELLOW(1);
   097E 43 FF 04           2305 	orl	_P2DIR,#0x04
   0981                    2306 00102$:
                    0352   2307 	C$ydrip.c$271$1$1 ==.
                           2308 ;	apps/ydrip/ydrip.c:271: if (uart1RxParityErrorOccurred)
                    0352   2309 	C$ydrip.c$272$2$5 ==.
                           2310 ;	apps/ydrip/ydrip.c:272: {   uart1RxParityErrorOccurred = 0;							// Clear Parity Errors
   0981 10 09 02           2311 	jbc	_uart1RxParityErrorOccurred,00113$
   0984 80 06              2312 	sjmp	00104$
   0986                    2313 00113$:
                    0357   2314 	C$ydrip.c$273$3$6 ==.
                           2315 ;	apps/ydrip/ydrip.c:273: LED_RED(1);												// Error Indicator
   0986 43 FF 02           2316 	orl	_P2DIR,#0x02
                    035A   2317 	C$ydrip.c$274$3$7 ==.
                           2318 ;	apps/ydrip/ydrip.c:274: LED_YELLOW(1);
   0989 43 FF 04           2319 	orl	_P2DIR,#0x04
   098C                    2320 00104$:
                    035D   2321 	C$ydrip.c$276$1$1 ==.
                           2322 ;	apps/ydrip/ydrip.c:276: if (uart1RxFramingErrorOccurred)
                    035D   2323 	C$ydrip.c$277$2$8 ==.
                           2324 ;	apps/ydrip/ydrip.c:277: {   uart1RxFramingErrorOccurred = 0;
   098C 10 0A 02           2325 	jbc	_uart1RxFramingErrorOccurred,00114$
   098F 80 12              2326 	sjmp	00106$
   0991                    2327 00114$:
                    0362   2328 	C$ydrip.c$278$3$9 ==.
                           2329 ;	apps/ydrip/ydrip.c:278: LED_RED(1);												// Put the red LED on to show there was an error
   0991 43 FF 02           2330 	orl	_P2DIR,#0x02
                    0365   2331 	C$ydrip.c$279$3$10 ==.
                           2332 ;	apps/ydrip/ydrip.c:279: LED_YELLOW(1);
   0994 43 FF 04           2333 	orl	_P2DIR,#0x04
                    0368   2334 	C$ydrip.c$280$2$8 ==.
                           2335 ;	apps/ydrip/ydrip.c:280: uartDisable();
   0997 12 06 6D           2336 	lcall	_uartDisable
                    036B   2337 	C$ydrip.c$282$2$8 ==.
                           2338 ;	apps/ydrip/ydrip.c:282: delayMs(250);											// Crude and will slow us down but we can take the small hit
   099A 90 00 FA           2339 	mov	dptr,#0x00FA
   099D 12 4C EF           2340 	lcall	_delayMs
                    0371   2341 	C$ydrip.c$284$2$8 ==.
                           2342 ;	apps/ydrip/ydrip.c:284: uartEnable();											// It would be nice to check the uart status here before we switch it on again
   09A0 12 06 5C           2343 	lcall	_uartEnable
   09A3                    2344 00106$:
                    0374   2345 	C$ydrip.c$286$2$11 ==.
                           2346 ;	apps/ydrip/ydrip.c:286: LED_RED(0);												// Error Indicator
   09A3 AF FF              2347 	mov	r7,_P2DIR
   09A5 53 07 FD           2348 	anl	ar7,#0xFD
   09A8 8F FF              2349 	mov	_P2DIR,r7
                    037B   2350 	C$ydrip.c$287$2$12 ==.
                           2351 ;	apps/ydrip/ydrip.c:287: LED_YELLOW(0);
   09AA AF FF              2352 	mov	r7,_P2DIR
   09AC 53 07 FB           2353 	anl	ar7,#0xFB
   09AF 8F FF              2354 	mov	_P2DIR,r7
                    0382   2355 	C$ydrip.c$288$2$12 ==.
                    0382   2356 	XG$clearRxErrors$0$0 ==.
   09B1 22                 2357 	ret
                           2358 ;------------------------------------------------------------
                           2359 ;Allocation info for local variables in function 'doServices'
                           2360 ;------------------------------------------------------------
                    0383   2361 	G$doServices$0$0 ==.
                    0383   2362 	C$ydrip.c$290$2$12 ==.
                           2363 ;	apps/ydrip/ydrip.c:290: void doServices() {
                           2364 ;	-----------------------------------------
                           2365 ;	 function doServices
                           2366 ;	-----------------------------------------
   09B2                    2367 _doServices:
                    0383   2368 	C$ydrip.c$291$1$1 ==.
                           2369 ;	apps/ydrip/ydrip.c:291: boardService();
   09B2 12 40 C2           2370 	lcall	_boardService
                    0386   2371 	C$ydrip.c$292$1$1 ==.
                           2372 ;	apps/ydrip/ydrip.c:292: if(usbPowerPresent()) {
   09B5 12 41 79           2373 	lcall	_usbPowerPresent
   09B8 50 06              2374 	jnc	00103$
                    038B   2375 	C$ydrip.c$293$2$2 ==.
                           2376 ;	apps/ydrip/ydrip.c:293: usbComService();
   09BA 12 38 ED           2377 	lcall	_usbComService
                    038E   2378 	C$ydrip.c$294$2$2 ==.
                           2379 ;	apps/ydrip/ydrip.c:294: usbShowStatusWithGreenLed();
   09BD 12 50 0D           2380 	lcall	_usbShowStatusWithGreenLed
   09C0                    2381 00103$:
                    0391   2382 	C$ydrip.c$297$2$1 ==.
                    0391   2383 	XG$doServices$0$0 ==.
   09C0 22                 2384 	ret
                           2385 ;------------------------------------------------------------
                           2386 ;Allocation info for local variables in function 'initUart1'
                           2387 ;------------------------------------------------------------
                    0392   2388 	G$initUart1$0$0 ==.
                    0392   2389 	C$ydrip.c$299$2$1 ==.
                           2390 ;	apps/ydrip/ydrip.c:299: void initUart1() {
                           2391 ;	-----------------------------------------
                           2392 ;	 function initUart1
                           2393 ;	-----------------------------------------
   09C1                    2394 _initUart1:
                    0392   2395 	C$ydrip.c$300$1$1 ==.
                           2396 ;	apps/ydrip/ydrip.c:300: uart1Init();
   09C1 12 2C 5C           2397 	lcall	_uart1Init
                    0395   2398 	C$ydrip.c$301$1$1 ==.
                           2399 ;	apps/ydrip/ydrip.c:301: uart1SetBaudRate(9600);
   09C4 90 25 80           2400 	mov	dptr,#0x2580
   09C7 E4                 2401 	clr	a
   09C8 F5 F0              2402 	mov	b,a
   09CA 12 2C 90           2403 	lcall	_uart1SetBaudRate
                    039E   2404 	C$ydrip.c$302$1$1 ==.
                    039E   2405 	XG$initUart1$0$0 ==.
   09CD 22                 2406 	ret
                           2407 ;------------------------------------------------------------
                           2408 ;Allocation info for local variables in function 'getSrcValue'
                           2409 ;------------------------------------------------------------
                           2410 ;srcVal                    Allocated with name '_getSrcValue_srcVal_1_1'
                           2411 ;i                         Allocated with name '_getSrcValue_i_1_1'
                           2412 ;------------------------------------------------------------
                    039F   2413 	G$getSrcValue$0$0 ==.
                    039F   2414 	C$ydrip.c$304$1$1 ==.
                           2415 ;	apps/ydrip/ydrip.c:304: uint32 getSrcValue(XDATA char srcVal) {
                           2416 ;	-----------------------------------------
                           2417 ;	 function getSrcValue
                           2418 ;	-----------------------------------------
   09CE                    2419 _getSrcValue:
   09CE E5 82              2420 	mov	a,dpl
                    03A1   2421 	C$ydrip.c$306$2$2 ==.
                           2422 ;	apps/ydrip/ydrip.c:306: for(i = 0; i < 32; i++) {
   09D0 90 F1 05           2423 	mov	dptr,#_getSrcValue_srcVal_1_1
   09D3 F0                 2424 	movx	@dptr,a
   09D4 FF                 2425 	mov	r7,a
   09D5 7E 00              2426 	mov	r6,#0x00
   09D7                    2427 00103$:
   09D7 BE 20 00           2428 	cjne	r6,#0x20,00113$
   09DA                    2429 00113$:
   09DA 50 14              2430 	jnc	00106$
                    03AD   2431 	C$ydrip.c$307$2$2 ==.
                           2432 ;	apps/ydrip/ydrip.c:307: if (SrcNameTable[i]==srcVal) break;
   09DC EE                 2433 	mov	a,r6
   09DD 24 78              2434 	add	a,#_SrcNameTable
   09DF F5 82              2435 	mov	dpl,a
   09E1 E4                 2436 	clr	a
   09E2 34 F8              2437 	addc	a,#(_SrcNameTable >> 8)
   09E4 F5 83              2438 	mov	dph,a
   09E6 E0                 2439 	movx	a,@dptr
   09E7 FD                 2440 	mov	r5,a
   09E8 B5 07 02           2441 	cjne	a,ar7,00115$
   09EB 80 03              2442 	sjmp	00106$
   09ED                    2443 00115$:
                    03BE   2444 	C$ydrip.c$306$1$1 ==.
                           2445 ;	apps/ydrip/ydrip.c:306: for(i = 0; i < 32; i++) {
   09ED 0E                 2446 	inc	r6
   09EE 80 E7              2447 	sjmp	00103$
   09F0                    2448 00106$:
                    03C1   2449 	C$ydrip.c$309$1$1 ==.
                           2450 ;	apps/ydrip/ydrip.c:309: return i & 0xFF;
   09F0 7F 00              2451 	mov	r7,#0x00
   09F2 7D 00              2452 	mov	r5,#0x00
   09F4 7C 00              2453 	mov	r4,#0x00
   09F6 8E 82              2454 	mov	dpl,r6
   09F8 8F 83              2455 	mov	dph,r7
   09FA 8D F0              2456 	mov	b,r5
   09FC EC                 2457 	mov	a,r4
                    03CE   2458 	C$ydrip.c$310$1$1 ==.
                    03CE   2459 	XG$getSrcValue$0$0 ==.
   09FD 22                 2460 	ret
                           2461 ;------------------------------------------------------------
                           2462 ;Allocation info for local variables in function 'getESPString'
                           2463 ;------------------------------------------------------------
                           2464 ;uartCharacters            Allocated with name '_getESPString_uartCharacters_1_1'
                           2465 ;i                         Allocated with name '_getESPString_i_1_1'
                           2466 ;stop                      Allocated with name '_getESPString_stop_1_1'
                           2467 ;now                       Allocated with name '_getESPString_now_1_1'
                           2468 ;------------------------------------------------------------
                    03CF   2469 	G$getESPString$0$0 ==.
                    03CF   2470 	C$ydrip.c$312$1$1 ==.
                           2471 ;	apps/ydrip/ydrip.c:312: XDATA char * getESPString() {					// Read the uart input buffer once character at a time
                           2472 ;	-----------------------------------------
                           2473 ;	 function getESPString
                           2474 ;	-----------------------------------------
   09FE                    2475 _getESPString:
                    03CF   2476 	C$ydrip.c$317$1$1 ==.
                           2477 ;	apps/ydrip/ydrip.c:317: i=0;
   09FE 90 F1 56           2478 	mov	dptr,#_getESPString_i_1_1
   0A01 E4                 2479 	clr	a
   0A02 F0                 2480 	movx	@dptr,a
                    03D4   2481 	C$ydrip.c$320$1$1 ==.
                           2482 ;	apps/ydrip/ydrip.c:320: stop = (getMs() + (defaultWaitTime * 2));
   0A03 12 4C C3           2483 	lcall	_getMs
   0A06 AC 82              2484 	mov	r4,dpl
   0A08 AD 83              2485 	mov	r5,dph
   0A0A AE F0              2486 	mov	r6,b
   0A0C FF                 2487 	mov	r7,a
   0A0D 90 F8 74           2488 	mov	dptr,#_defaultWaitTime
   0A10 E0                 2489 	movx	a,@dptr
   0A11 F8                 2490 	mov	r0,a
   0A12 A3                 2491 	inc	dptr
   0A13 E0                 2492 	movx	a,@dptr
   0A14 F9                 2493 	mov	r1,a
   0A15 A3                 2494 	inc	dptr
   0A16 E0                 2495 	movx	a,@dptr
   0A17 FA                 2496 	mov	r2,a
   0A18 A3                 2497 	inc	dptr
   0A19 E0                 2498 	movx	a,@dptr
   0A1A FB                 2499 	mov	r3,a
   0A1B E8                 2500 	mov	a,r0
   0A1C 28                 2501 	add	a,r0
   0A1D F8                 2502 	mov	r0,a
   0A1E E9                 2503 	mov	a,r1
   0A1F 33                 2504 	rlc	a
   0A20 F9                 2505 	mov	r1,a
   0A21 EA                 2506 	mov	a,r2
   0A22 33                 2507 	rlc	a
   0A23 FA                 2508 	mov	r2,a
   0A24 EB                 2509 	mov	a,r3
   0A25 33                 2510 	rlc	a
   0A26 FB                 2511 	mov	r3,a
   0A27 E8                 2512 	mov	a,r0
   0A28 2C                 2513 	add	a,r4
   0A29 FC                 2514 	mov	r4,a
   0A2A E9                 2515 	mov	a,r1
   0A2B 3D                 2516 	addc	a,r5
   0A2C FD                 2517 	mov	r5,a
   0A2D EA                 2518 	mov	a,r2
   0A2E 3E                 2519 	addc	a,r6
   0A2F FE                 2520 	mov	r6,a
   0A30 EB                 2521 	mov	a,r3
   0A31 3F                 2522 	addc	a,r7
   0A32 FF                 2523 	mov	r7,a
   0A33 90 F1 57           2524 	mov	dptr,#_getESPString_stop_1_1
   0A36 EC                 2525 	mov	a,r4
   0A37 F0                 2526 	movx	@dptr,a
   0A38 A3                 2527 	inc	dptr
   0A39 ED                 2528 	mov	a,r5
   0A3A F0                 2529 	movx	@dptr,a
   0A3B A3                 2530 	inc	dptr
   0A3C EE                 2531 	mov	a,r6
   0A3D F0                 2532 	movx	@dptr,a
   0A3E A3                 2533 	inc	dptr
   0A3F EF                 2534 	mov	a,r7
   0A40 F0                 2535 	movx	@dptr,a
                    0412   2536 	C$ydrip.c$321$1$1 ==.
                           2537 ;	apps/ydrip/ydrip.c:321: now  = getMs();
   0A41 12 4C C3           2538 	lcall	_getMs
   0A44 AC 82              2539 	mov	r4,dpl
   0A46 AD 83              2540 	mov	r5,dph
   0A48 AE F0              2541 	mov	r6,b
   0A4A FF                 2542 	mov	r7,a
   0A4B 90 F1 5B           2543 	mov	dptr,#_getESPString_now_1_1
   0A4E EC                 2544 	mov	a,r4
   0A4F F0                 2545 	movx	@dptr,a
   0A50 A3                 2546 	inc	dptr
   0A51 ED                 2547 	mov	a,r5
   0A52 F0                 2548 	movx	@dptr,a
   0A53 A3                 2549 	inc	dptr
   0A54 EE                 2550 	mov	a,r6
   0A55 F0                 2551 	movx	@dptr,a
   0A56 A3                 2552 	inc	dptr
   0A57 EF                 2553 	mov	a,r7
   0A58 F0                 2554 	movx	@dptr,a
                    042A   2555 	C$ydrip.c$323$1$1 ==.
                           2556 ;	apps/ydrip/ydrip.c:323: while (uart1RxAvailable() == 0 && stop > now) {				// This && is still using up some DSEG but is cheaper than comparing stop to getMS()
   0A59 90 F1 57           2557 	mov	dptr,#_getESPString_stop_1_1
   0A5C E0                 2558 	movx	a,@dptr
   0A5D FC                 2559 	mov	r4,a
   0A5E A3                 2560 	inc	dptr
   0A5F E0                 2561 	movx	a,@dptr
   0A60 FD                 2562 	mov	r5,a
   0A61 A3                 2563 	inc	dptr
   0A62 E0                 2564 	movx	a,@dptr
   0A63 FE                 2565 	mov	r6,a
   0A64 A3                 2566 	inc	dptr
   0A65 E0                 2567 	movx	a,@dptr
   0A66 FF                 2568 	mov	r7,a
   0A67                    2569 00102$:
   0A67 C0 07              2570 	push	ar7
   0A69 C0 06              2571 	push	ar6
   0A6B C0 05              2572 	push	ar5
   0A6D C0 04              2573 	push	ar4
   0A6F 12 2E 0F           2574 	lcall	_uart1RxAvailable
   0A72 E5 82              2575 	mov	a,dpl
   0A74 D0 04              2576 	pop	ar4
   0A76 D0 05              2577 	pop	ar5
   0A78 D0 06              2578 	pop	ar6
   0A7A D0 07              2579 	pop	ar7
   0A7C 70 51              2580 	jnz	00126$
   0A7E 90 F1 5B           2581 	mov	dptr,#_getESPString_now_1_1
   0A81 E0                 2582 	movx	a,@dptr
   0A82 F8                 2583 	mov	r0,a
   0A83 A3                 2584 	inc	dptr
   0A84 E0                 2585 	movx	a,@dptr
   0A85 F9                 2586 	mov	r1,a
   0A86 A3                 2587 	inc	dptr
   0A87 E0                 2588 	movx	a,@dptr
   0A88 FA                 2589 	mov	r2,a
   0A89 A3                 2590 	inc	dptr
   0A8A E0                 2591 	movx	a,@dptr
   0A8B FB                 2592 	mov	r3,a
   0A8C C3                 2593 	clr	c
   0A8D E8                 2594 	mov	a,r0
   0A8E 9C                 2595 	subb	a,r4
   0A8F E9                 2596 	mov	a,r1
   0A90 9D                 2597 	subb	a,r5
   0A91 EA                 2598 	mov	a,r2
   0A92 9E                 2599 	subb	a,r6
   0A93 EB                 2600 	mov	a,r3
   0A94 64 80              2601 	xrl	a,#0x80
   0A96 8F F0              2602 	mov	b,r7
   0A98 63 F0 80           2603 	xrl	b,#0x80
   0A9B 95 F0              2604 	subb	a,b
   0A9D 50 30              2605 	jnc	00126$
                    0470   2606 	C$ydrip.c$324$2$2 ==.
                           2607 ;	apps/ydrip/ydrip.c:324: now  = getMs();
   0A9F C0 07              2608 	push	ar7
   0AA1 C0 06              2609 	push	ar6
   0AA3 C0 05              2610 	push	ar5
   0AA5 C0 04              2611 	push	ar4
   0AA7 12 4C C3           2612 	lcall	_getMs
   0AAA A8 82              2613 	mov	r0,dpl
   0AAC A9 83              2614 	mov	r1,dph
   0AAE AA F0              2615 	mov	r2,b
   0AB0 FB                 2616 	mov	r3,a
   0AB1 90 F1 5B           2617 	mov	dptr,#_getESPString_now_1_1
   0AB4 E8                 2618 	mov	a,r0
   0AB5 F0                 2619 	movx	@dptr,a
   0AB6 A3                 2620 	inc	dptr
   0AB7 E9                 2621 	mov	a,r1
   0AB8 F0                 2622 	movx	@dptr,a
   0AB9 A3                 2623 	inc	dptr
   0ABA EA                 2624 	mov	a,r2
   0ABB F0                 2625 	movx	@dptr,a
   0ABC A3                 2626 	inc	dptr
   0ABD EB                 2627 	mov	a,r3
   0ABE F0                 2628 	movx	@dptr,a
                    0490   2629 	C$ydrip.c$325$2$2 ==.
                           2630 ;	apps/ydrip/ydrip.c:325: delayMs(10);
   0ABF 90 00 0A           2631 	mov	dptr,#0x000A
   0AC2 12 4C EF           2632 	lcall	_delayMs
   0AC5 D0 04              2633 	pop	ar4
   0AC7 D0 05              2634 	pop	ar5
   0AC9 D0 06              2635 	pop	ar6
   0ACB D0 07              2636 	pop	ar7
                    049E   2637 	C$ydrip.c$328$1$1 ==.
                           2638 ;	apps/ydrip/ydrip.c:328: while (uart1RxAvailable() && i < 80) {
   0ACD 80 98              2639 	sjmp	00102$
   0ACF                    2640 00126$:
   0ACF                    2641 00114$:
   0ACF 12 2E 0F           2642 	lcall	_uart1RxAvailable
   0AD2 E5 82              2643 	mov	a,dpl
   0AD4 60 6E              2644 	jz	00116$
   0AD6 90 F1 56           2645 	mov	dptr,#_getESPString_i_1_1
   0AD9 E0                 2646 	movx	a,@dptr
   0ADA FF                 2647 	mov	r7,a
   0ADB C3                 2648 	clr	c
   0ADC 64 80              2649 	xrl	a,#0x80
   0ADE 94 D0              2650 	subb	a,#0xd0
   0AE0 50 62              2651 	jnc	00116$
                    04B3   2652 	C$ydrip.c$329$2$3 ==.
                           2653 ;	apps/ydrip/ydrip.c:329: uartCharacters[i] = uart1RxReceiveByte();
   0AE2 EF                 2654 	mov	a,r7
   0AE3 24 06              2655 	add	a,#_getESPString_uartCharacters_1_1
   0AE5 FF                 2656 	mov	r7,a
   0AE6 E4                 2657 	clr	a
   0AE7 34 F1              2658 	addc	a,#(_getESPString_uartCharacters_1_1 >> 8)
   0AE9 FE                 2659 	mov	r6,a
   0AEA C0 07              2660 	push	ar7
   0AEC C0 06              2661 	push	ar6
   0AEE 12 2E 17           2662 	lcall	_uart1RxReceiveByte
   0AF1 AD 82              2663 	mov	r5,dpl
   0AF3 D0 06              2664 	pop	ar6
   0AF5 D0 07              2665 	pop	ar7
   0AF7 8F 82              2666 	mov	dpl,r7
   0AF9 8E 83              2667 	mov	dph,r6
   0AFB ED                 2668 	mov	a,r5
   0AFC F0                 2669 	movx	@dptr,a
                    04CE   2670 	C$ydrip.c$331$2$3 ==.
                           2671 ;	apps/ydrip/ydrip.c:331: if (usbPowerPresent()) {
   0AFD 12 41 79           2672 	lcall	_usbPowerPresent
   0B00 50 1F              2673 	jnc	00109$
                    04D3   2674 	C$ydrip.c$332$3$4 ==.
                           2675 ;	apps/ydrip/ydrip.c:332: while(usbComTxAvailable() == 0) {							//  Loop until space in the TX buffer to send a character
   0B02                    2676 00105$:
   0B02 12 39 92           2677 	lcall	_usbComTxAvailable
   0B05 E5 82              2678 	mov	a,dpl
   0B07 70 05              2679 	jnz	00107$
                    04DA   2680 	C$ydrip.c$333$4$5 ==.
                           2681 ;	apps/ydrip/ydrip.c:333: doServices();
   0B09 12 09 B2           2682 	lcall	_doServices
   0B0C 80 F4              2683 	sjmp	00105$
   0B0E                    2684 00107$:
                    04DF   2685 	C$ydrip.c$335$3$4 ==.
                           2686 ;	apps/ydrip/ydrip.c:335: usbComTxSendByte(uartCharacters[i]);
   0B0E 90 F1 56           2687 	mov	dptr,#_getESPString_i_1_1
   0B11 E0                 2688 	movx	a,@dptr
   0B12 24 06              2689 	add	a,#_getESPString_uartCharacters_1_1
   0B14 F5 82              2690 	mov	dpl,a
   0B16 E4                 2691 	clr	a
   0B17 34 F1              2692 	addc	a,#(_getESPString_uartCharacters_1_1 >> 8)
   0B19 F5 83              2693 	mov	dph,a
   0B1B E0                 2694 	movx	a,@dptr
   0B1C F5 82              2695 	mov	dpl,a
   0B1E 12 3A 24           2696 	lcall	_usbComTxSendByte
   0B21                    2697 00109$:
                    04F2   2698 	C$ydrip.c$337$2$3 ==.
                           2699 ;	apps/ydrip/ydrip.c:337: delayMs(10);
   0B21 90 00 0A           2700 	mov	dptr,#0x000A
   0B24 12 4C EF           2701 	lcall	_delayMs
                    04F8   2702 	C$ydrip.c$338$2$3 ==.
                           2703 ;	apps/ydrip/ydrip.c:338: i++;
   0B27 90 F1 56           2704 	mov	dptr,#_getESPString_i_1_1
   0B2A E0                 2705 	movx	a,@dptr
   0B2B 24 01              2706 	add	a,#0x01
   0B2D F0                 2707 	movx	@dptr,a
                    04FF   2708 	C$ydrip.c$339$2$3 ==.
                           2709 ;	apps/ydrip/ydrip.c:339: if (uart1RxAvailable() && i == 80) i=0;					// wrap around for another line if more text (very crude)
   0B2E 12 2E 0F           2710 	lcall	_uart1RxAvailable
   0B31 E5 82              2711 	mov	a,dpl
   0B33 60 9A              2712 	jz	00114$
   0B35 90 F1 56           2713 	mov	dptr,#_getESPString_i_1_1
   0B38 E0                 2714 	movx	a,@dptr
   0B39 FF                 2715 	mov	r7,a
   0B3A BF 50 92           2716 	cjne	r7,#0x50,00114$
   0B3D 90 F1 56           2717 	mov	dptr,#_getESPString_i_1_1
   0B40 E4                 2718 	clr	a
   0B41 F0                 2719 	movx	@dptr,a
   0B42 80 8B              2720 	sjmp	00114$
   0B44                    2721 00116$:
                    0515   2722 	C$ydrip.c$341$1$1 ==.
                           2723 ;	apps/ydrip/ydrip.c:341: uartCharacters[i] = 0;										// Add an end-of-string character after copying the input into the character array
   0B44 90 F1 56           2724 	mov	dptr,#_getESPString_i_1_1
   0B47 E0                 2725 	movx	a,@dptr
   0B48 24 06              2726 	add	a,#_getESPString_uartCharacters_1_1
   0B4A F5 82              2727 	mov	dpl,a
   0B4C E4                 2728 	clr	a
   0B4D 34 F1              2729 	addc	a,#(_getESPString_uartCharacters_1_1 >> 8)
   0B4F F5 83              2730 	mov	dph,a
   0B51 E4                 2731 	clr	a
   0B52 F0                 2732 	movx	@dptr,a
                    0524   2733 	C$ydrip.c$342$1$1 ==.
                           2734 ;	apps/ydrip/ydrip.c:342: return uartCharacters;
   0B53 90 F1 06           2735 	mov	dptr,#_getESPString_uartCharacters_1_1
                    0527   2736 	C$ydrip.c$343$1$1 ==.
                    0527   2737 	XG$getESPString$0$0 ==.
   0B56 22                 2738 	ret
                           2739 ;------------------------------------------------------------
                           2740 ;Allocation info for local variables in function 'sendAT'
                           2741 ;------------------------------------------------------------
                           2742 ;atString                  Allocated with name '_sendAT_atString_1_1'
                           2743 ;ATresponse                Allocated with name '_sendAT_ATresponse_1_1'
                           2744 ;------------------------------------------------------------
                    0528   2745 	G$sendAT$0$0 ==.
                    0528   2746 	C$ydrip.c$345$1$1 ==.
                           2747 ;	apps/ydrip/ydrip.c:345: void sendAT(XDATA char atString[40]) {
                           2748 ;	-----------------------------------------
                           2749 ;	 function sendAT
                           2750 ;	-----------------------------------------
   0B57                    2751 _sendAT:
   0B57 AF 83              2752 	mov	r7,dph
   0B59 E5 82              2753 	mov	a,dpl
   0B5B 90 F1 5F           2754 	mov	dptr,#_sendAT_atString_1_1
   0B5E F0                 2755 	movx	@dptr,a
   0B5F A3                 2756 	inc	dptr
   0B60 EF                 2757 	mov	a,r7
   0B61 F0                 2758 	movx	@dptr,a
                    0533   2759 	C$ydrip.c$346$1$1 ==.
                           2760 ;	apps/ydrip/ydrip.c:346: XDATA char ATresponse[80]={0};
   0B62 90 F1 61           2761 	mov	dptr,#_sendAT_ATresponse_1_1
   0B65 E4                 2762 	clr	a
   0B66 F0                 2763 	movx	@dptr,a
   0B67 90 F1 62           2764 	mov	dptr,#(_sendAT_ATresponse_1_1 + 0x0001)
   0B6A F0                 2765 	movx	@dptr,a
   0B6B 90 F1 63           2766 	mov	dptr,#(_sendAT_ATresponse_1_1 + 0x0002)
   0B6E F0                 2767 	movx	@dptr,a
   0B6F 90 F1 64           2768 	mov	dptr,#(_sendAT_ATresponse_1_1 + 0x0003)
   0B72 F0                 2769 	movx	@dptr,a
   0B73 90 F1 65           2770 	mov	dptr,#(_sendAT_ATresponse_1_1 + 0x0004)
   0B76 E4                 2771 	clr	a
   0B77 F0                 2772 	movx	@dptr,a
   0B78 90 F1 66           2773 	mov	dptr,#(_sendAT_ATresponse_1_1 + 0x0005)
   0B7B F0                 2774 	movx	@dptr,a
   0B7C 90 F1 67           2775 	mov	dptr,#(_sendAT_ATresponse_1_1 + 0x0006)
   0B7F F0                 2776 	movx	@dptr,a
   0B80 90 F1 68           2777 	mov	dptr,#(_sendAT_ATresponse_1_1 + 0x0007)
   0B83 F0                 2778 	movx	@dptr,a
   0B84 90 F1 69           2779 	mov	dptr,#(_sendAT_ATresponse_1_1 + 0x0008)
   0B87 E4                 2780 	clr	a
   0B88 F0                 2781 	movx	@dptr,a
   0B89 90 F1 6A           2782 	mov	dptr,#(_sendAT_ATresponse_1_1 + 0x0009)
   0B8C F0                 2783 	movx	@dptr,a
   0B8D 90 F1 6B           2784 	mov	dptr,#(_sendAT_ATresponse_1_1 + 0x000a)
   0B90 F0                 2785 	movx	@dptr,a
   0B91 90 F1 6C           2786 	mov	dptr,#(_sendAT_ATresponse_1_1 + 0x000b)
   0B94 F0                 2787 	movx	@dptr,a
   0B95 90 F1 6D           2788 	mov	dptr,#(_sendAT_ATresponse_1_1 + 0x000c)
   0B98 E4                 2789 	clr	a
   0B99 F0                 2790 	movx	@dptr,a
   0B9A 90 F1 6E           2791 	mov	dptr,#(_sendAT_ATresponse_1_1 + 0x000d)
   0B9D F0                 2792 	movx	@dptr,a
   0B9E 90 F1 6F           2793 	mov	dptr,#(_sendAT_ATresponse_1_1 + 0x000e)
   0BA1 F0                 2794 	movx	@dptr,a
   0BA2 90 F1 70           2795 	mov	dptr,#(_sendAT_ATresponse_1_1 + 0x000f)
   0BA5 F0                 2796 	movx	@dptr,a
   0BA6 90 F1 71           2797 	mov	dptr,#(_sendAT_ATresponse_1_1 + 0x0010)
   0BA9 E4                 2798 	clr	a
   0BAA F0                 2799 	movx	@dptr,a
   0BAB 90 F1 72           2800 	mov	dptr,#(_sendAT_ATresponse_1_1 + 0x0011)
   0BAE F0                 2801 	movx	@dptr,a
   0BAF 90 F1 73           2802 	mov	dptr,#(_sendAT_ATresponse_1_1 + 0x0012)
   0BB2 F0                 2803 	movx	@dptr,a
   0BB3 90 F1 74           2804 	mov	dptr,#(_sendAT_ATresponse_1_1 + 0x0013)
   0BB6 F0                 2805 	movx	@dptr,a
   0BB7 90 F1 75           2806 	mov	dptr,#(_sendAT_ATresponse_1_1 + 0x0014)
   0BBA E4                 2807 	clr	a
   0BBB F0                 2808 	movx	@dptr,a
   0BBC 90 F1 76           2809 	mov	dptr,#(_sendAT_ATresponse_1_1 + 0x0015)
   0BBF F0                 2810 	movx	@dptr,a
   0BC0 90 F1 77           2811 	mov	dptr,#(_sendAT_ATresponse_1_1 + 0x0016)
   0BC3 F0                 2812 	movx	@dptr,a
   0BC4 90 F1 78           2813 	mov	dptr,#(_sendAT_ATresponse_1_1 + 0x0017)
   0BC7 F0                 2814 	movx	@dptr,a
   0BC8 90 F1 79           2815 	mov	dptr,#(_sendAT_ATresponse_1_1 + 0x0018)
   0BCB E4                 2816 	clr	a
   0BCC F0                 2817 	movx	@dptr,a
   0BCD 90 F1 7A           2818 	mov	dptr,#(_sendAT_ATresponse_1_1 + 0x0019)
   0BD0 F0                 2819 	movx	@dptr,a
   0BD1 90 F1 7B           2820 	mov	dptr,#(_sendAT_ATresponse_1_1 + 0x001a)
   0BD4 F0                 2821 	movx	@dptr,a
   0BD5 90 F1 7C           2822 	mov	dptr,#(_sendAT_ATresponse_1_1 + 0x001b)
   0BD8 F0                 2823 	movx	@dptr,a
   0BD9 90 F1 7D           2824 	mov	dptr,#(_sendAT_ATresponse_1_1 + 0x001c)
   0BDC E4                 2825 	clr	a
   0BDD F0                 2826 	movx	@dptr,a
   0BDE 90 F1 7E           2827 	mov	dptr,#(_sendAT_ATresponse_1_1 + 0x001d)
   0BE1 F0                 2828 	movx	@dptr,a
   0BE2 90 F1 7F           2829 	mov	dptr,#(_sendAT_ATresponse_1_1 + 0x001e)
   0BE5 F0                 2830 	movx	@dptr,a
   0BE6 90 F1 80           2831 	mov	dptr,#(_sendAT_ATresponse_1_1 + 0x001f)
   0BE9 F0                 2832 	movx	@dptr,a
   0BEA 90 F1 81           2833 	mov	dptr,#(_sendAT_ATresponse_1_1 + 0x0020)
   0BED E4                 2834 	clr	a
   0BEE F0                 2835 	movx	@dptr,a
   0BEF 90 F1 82           2836 	mov	dptr,#(_sendAT_ATresponse_1_1 + 0x0021)
   0BF2 F0                 2837 	movx	@dptr,a
   0BF3 90 F1 83           2838 	mov	dptr,#(_sendAT_ATresponse_1_1 + 0x0022)
   0BF6 F0                 2839 	movx	@dptr,a
   0BF7 90 F1 84           2840 	mov	dptr,#(_sendAT_ATresponse_1_1 + 0x0023)
   0BFA F0                 2841 	movx	@dptr,a
   0BFB 90 F1 85           2842 	mov	dptr,#(_sendAT_ATresponse_1_1 + 0x0024)
   0BFE E4                 2843 	clr	a
   0BFF F0                 2844 	movx	@dptr,a
   0C00 90 F1 86           2845 	mov	dptr,#(_sendAT_ATresponse_1_1 + 0x0025)
   0C03 F0                 2846 	movx	@dptr,a
   0C04 90 F1 87           2847 	mov	dptr,#(_sendAT_ATresponse_1_1 + 0x0026)
   0C07 F0                 2848 	movx	@dptr,a
   0C08 90 F1 88           2849 	mov	dptr,#(_sendAT_ATresponse_1_1 + 0x0027)
   0C0B F0                 2850 	movx	@dptr,a
   0C0C 90 F1 89           2851 	mov	dptr,#(_sendAT_ATresponse_1_1 + 0x0028)
   0C0F E4                 2852 	clr	a
   0C10 F0                 2853 	movx	@dptr,a
   0C11 90 F1 8A           2854 	mov	dptr,#(_sendAT_ATresponse_1_1 + 0x0029)
   0C14 F0                 2855 	movx	@dptr,a
   0C15 90 F1 8B           2856 	mov	dptr,#(_sendAT_ATresponse_1_1 + 0x002a)
   0C18 F0                 2857 	movx	@dptr,a
   0C19 90 F1 8C           2858 	mov	dptr,#(_sendAT_ATresponse_1_1 + 0x002b)
   0C1C F0                 2859 	movx	@dptr,a
   0C1D 90 F1 8D           2860 	mov	dptr,#(_sendAT_ATresponse_1_1 + 0x002c)
   0C20 E4                 2861 	clr	a
   0C21 F0                 2862 	movx	@dptr,a
   0C22 90 F1 8E           2863 	mov	dptr,#(_sendAT_ATresponse_1_1 + 0x002d)
   0C25 F0                 2864 	movx	@dptr,a
   0C26 90 F1 8F           2865 	mov	dptr,#(_sendAT_ATresponse_1_1 + 0x002e)
   0C29 F0                 2866 	movx	@dptr,a
   0C2A 90 F1 90           2867 	mov	dptr,#(_sendAT_ATresponse_1_1 + 0x002f)
   0C2D F0                 2868 	movx	@dptr,a
   0C2E 90 F1 91           2869 	mov	dptr,#(_sendAT_ATresponse_1_1 + 0x0030)
   0C31 E4                 2870 	clr	a
   0C32 F0                 2871 	movx	@dptr,a
   0C33 90 F1 92           2872 	mov	dptr,#(_sendAT_ATresponse_1_1 + 0x0031)
   0C36 F0                 2873 	movx	@dptr,a
   0C37 90 F1 93           2874 	mov	dptr,#(_sendAT_ATresponse_1_1 + 0x0032)
   0C3A F0                 2875 	movx	@dptr,a
   0C3B 90 F1 94           2876 	mov	dptr,#(_sendAT_ATresponse_1_1 + 0x0033)
   0C3E F0                 2877 	movx	@dptr,a
   0C3F 90 F1 95           2878 	mov	dptr,#(_sendAT_ATresponse_1_1 + 0x0034)
   0C42 E4                 2879 	clr	a
   0C43 F0                 2880 	movx	@dptr,a
   0C44 90 F1 96           2881 	mov	dptr,#(_sendAT_ATresponse_1_1 + 0x0035)
   0C47 F0                 2882 	movx	@dptr,a
   0C48 90 F1 97           2883 	mov	dptr,#(_sendAT_ATresponse_1_1 + 0x0036)
   0C4B F0                 2884 	movx	@dptr,a
   0C4C 90 F1 98           2885 	mov	dptr,#(_sendAT_ATresponse_1_1 + 0x0037)
   0C4F F0                 2886 	movx	@dptr,a
   0C50 90 F1 99           2887 	mov	dptr,#(_sendAT_ATresponse_1_1 + 0x0038)
   0C53 E4                 2888 	clr	a
   0C54 F0                 2889 	movx	@dptr,a
   0C55 90 F1 9A           2890 	mov	dptr,#(_sendAT_ATresponse_1_1 + 0x0039)
   0C58 F0                 2891 	movx	@dptr,a
   0C59 90 F1 9B           2892 	mov	dptr,#(_sendAT_ATresponse_1_1 + 0x003a)
   0C5C F0                 2893 	movx	@dptr,a
   0C5D 90 F1 9C           2894 	mov	dptr,#(_sendAT_ATresponse_1_1 + 0x003b)
   0C60 F0                 2895 	movx	@dptr,a
   0C61 90 F1 9D           2896 	mov	dptr,#(_sendAT_ATresponse_1_1 + 0x003c)
   0C64 E4                 2897 	clr	a
   0C65 F0                 2898 	movx	@dptr,a
   0C66 90 F1 9E           2899 	mov	dptr,#(_sendAT_ATresponse_1_1 + 0x003d)
   0C69 F0                 2900 	movx	@dptr,a
   0C6A 90 F1 9F           2901 	mov	dptr,#(_sendAT_ATresponse_1_1 + 0x003e)
   0C6D F0                 2902 	movx	@dptr,a
   0C6E 90 F1 A0           2903 	mov	dptr,#(_sendAT_ATresponse_1_1 + 0x003f)
   0C71 F0                 2904 	movx	@dptr,a
   0C72 90 F1 A1           2905 	mov	dptr,#(_sendAT_ATresponse_1_1 + 0x0040)
   0C75 E4                 2906 	clr	a
   0C76 F0                 2907 	movx	@dptr,a
   0C77 90 F1 A2           2908 	mov	dptr,#(_sendAT_ATresponse_1_1 + 0x0041)
   0C7A F0                 2909 	movx	@dptr,a
   0C7B 90 F1 A3           2910 	mov	dptr,#(_sendAT_ATresponse_1_1 + 0x0042)
   0C7E F0                 2911 	movx	@dptr,a
   0C7F 90 F1 A4           2912 	mov	dptr,#(_sendAT_ATresponse_1_1 + 0x0043)
   0C82 F0                 2913 	movx	@dptr,a
   0C83 90 F1 A5           2914 	mov	dptr,#(_sendAT_ATresponse_1_1 + 0x0044)
   0C86 E4                 2915 	clr	a
   0C87 F0                 2916 	movx	@dptr,a
   0C88 90 F1 A6           2917 	mov	dptr,#(_sendAT_ATresponse_1_1 + 0x0045)
   0C8B F0                 2918 	movx	@dptr,a
   0C8C 90 F1 A7           2919 	mov	dptr,#(_sendAT_ATresponse_1_1 + 0x0046)
   0C8F F0                 2920 	movx	@dptr,a
   0C90 90 F1 A8           2921 	mov	dptr,#(_sendAT_ATresponse_1_1 + 0x0047)
   0C93 F0                 2922 	movx	@dptr,a
   0C94 90 F1 A9           2923 	mov	dptr,#(_sendAT_ATresponse_1_1 + 0x0048)
   0C97 E4                 2924 	clr	a
   0C98 F0                 2925 	movx	@dptr,a
   0C99 90 F1 AA           2926 	mov	dptr,#(_sendAT_ATresponse_1_1 + 0x0049)
   0C9C F0                 2927 	movx	@dptr,a
   0C9D 90 F1 AB           2928 	mov	dptr,#(_sendAT_ATresponse_1_1 + 0x004a)
   0CA0 F0                 2929 	movx	@dptr,a
   0CA1 90 F1 AC           2930 	mov	dptr,#(_sendAT_ATresponse_1_1 + 0x004b)
   0CA4 F0                 2931 	movx	@dptr,a
   0CA5 90 F1 AD           2932 	mov	dptr,#(_sendAT_ATresponse_1_1 + 0x004c)
   0CA8 E4                 2933 	clr	a
   0CA9 F0                 2934 	movx	@dptr,a
   0CAA 90 F1 AE           2935 	mov	dptr,#(_sendAT_ATresponse_1_1 + 0x004d)
   0CAD F0                 2936 	movx	@dptr,a
   0CAE 90 F1 AF           2937 	mov	dptr,#(_sendAT_ATresponse_1_1 + 0x004e)
   0CB1 F0                 2938 	movx	@dptr,a
   0CB2 90 F1 B0           2939 	mov	dptr,#(_sendAT_ATresponse_1_1 + 0x004f)
   0CB5 F0                 2940 	movx	@dptr,a
                    0687   2941 	C$ydrip.c$347$1$1 ==.
                           2942 ;	apps/ydrip/ydrip.c:347: uartEnable();
   0CB6 12 06 5C           2943 	lcall	_uartEnable
                    068A   2944 	C$ydrip.c$348$1$1 ==.
                           2945 ;	apps/ydrip/ydrip.c:348: printf(atString);
   0CB9 90 F1 5F           2946 	mov	dptr,#_sendAT_atString_1_1
   0CBC E0                 2947 	movx	a,@dptr
   0CBD FE                 2948 	mov	r6,a
   0CBE A3                 2949 	inc	dptr
   0CBF E0                 2950 	movx	a,@dptr
   0CC0 FF                 2951 	mov	r7,a
   0CC1 7D 00              2952 	mov	r5,#0x00
   0CC3 C0 06              2953 	push	ar6
   0CC5 C0 07              2954 	push	ar7
   0CC7 C0 05              2955 	push	ar5
   0CC9 12 50 CA           2956 	lcall	_printf
   0CCC 15 81              2957 	dec	sp
   0CCE 15 81              2958 	dec	sp
   0CD0 15 81              2959 	dec	sp
                    06A3   2960 	C$ydrip.c$349$1$1 ==.
                           2961 ;	apps/ydrip/ydrip.c:349: delayMs(defaultWaitTime);
   0CD2 90 F8 74           2962 	mov	dptr,#_defaultWaitTime
   0CD5 E0                 2963 	movx	a,@dptr
   0CD6 FC                 2964 	mov	r4,a
   0CD7 A3                 2965 	inc	dptr
   0CD8 E0                 2966 	movx	a,@dptr
   0CD9 FD                 2967 	mov	r5,a
   0CDA A3                 2968 	inc	dptr
   0CDB E0                 2969 	movx	a,@dptr
   0CDC A3                 2970 	inc	dptr
   0CDD E0                 2971 	movx	a,@dptr
   0CDE 8C 82              2972 	mov	dpl,r4
   0CE0 8D 83              2973 	mov	dph,r5
   0CE2 12 4C EF           2974 	lcall	_delayMs
                    06B6   2975 	C$ydrip.c$350$1$1 ==.
                    06B6   2976 	XG$sendAT$0$0 ==.
   0CE5 22                 2977 	ret
                           2978 ;------------------------------------------------------------
                           2979 ;Allocation info for local variables in function 'enableESP'
                           2980 ;------------------------------------------------------------
                           2981 ;c                         Allocated with name '_enableESP_c_1_1'
                           2982 ;nofile                    Allocated with name '_enableESP_nofile_1_1'
                           2983 ;clen                      Allocated with name '_enableESP_clen_1_1'
                           2984 ;------------------------------------------------------------
                    06B7   2985 	G$enableESP$0$0 ==.
                    06B7   2986 	C$ydrip.c$352$1$1 ==.
                           2987 ;	apps/ydrip/ydrip.c:352: void enableESP() {
                           2988 ;	-----------------------------------------
                           2989 ;	 function enableESP
                           2990 ;	-----------------------------------------
   0CE6                    2991 _enableESP:
                    06B7   2992 	C$ydrip.c$353$1$1 ==.
                           2993 ;	apps/ydrip/ydrip.c:353: XDATA char c[80] = {0};
   0CE6 90 F1 B1           2994 	mov	dptr,#_enableESP_c_1_1
   0CE9 E4                 2995 	clr	a
   0CEA F0                 2996 	movx	@dptr,a
   0CEB 90 F1 B2           2997 	mov	dptr,#(_enableESP_c_1_1 + 0x0001)
   0CEE F0                 2998 	movx	@dptr,a
   0CEF 90 F1 B3           2999 	mov	dptr,#(_enableESP_c_1_1 + 0x0002)
   0CF2 F0                 3000 	movx	@dptr,a
   0CF3 90 F1 B4           3001 	mov	dptr,#(_enableESP_c_1_1 + 0x0003)
   0CF6 F0                 3002 	movx	@dptr,a
   0CF7 90 F1 B5           3003 	mov	dptr,#(_enableESP_c_1_1 + 0x0004)
   0CFA E4                 3004 	clr	a
   0CFB F0                 3005 	movx	@dptr,a
   0CFC 90 F1 B6           3006 	mov	dptr,#(_enableESP_c_1_1 + 0x0005)
   0CFF F0                 3007 	movx	@dptr,a
   0D00 90 F1 B7           3008 	mov	dptr,#(_enableESP_c_1_1 + 0x0006)
   0D03 F0                 3009 	movx	@dptr,a
   0D04 90 F1 B8           3010 	mov	dptr,#(_enableESP_c_1_1 + 0x0007)
   0D07 F0                 3011 	movx	@dptr,a
   0D08 90 F1 B9           3012 	mov	dptr,#(_enableESP_c_1_1 + 0x0008)
   0D0B E4                 3013 	clr	a
   0D0C F0                 3014 	movx	@dptr,a
   0D0D 90 F1 BA           3015 	mov	dptr,#(_enableESP_c_1_1 + 0x0009)
   0D10 F0                 3016 	movx	@dptr,a
   0D11 90 F1 BB           3017 	mov	dptr,#(_enableESP_c_1_1 + 0x000a)
   0D14 F0                 3018 	movx	@dptr,a
   0D15 90 F1 BC           3019 	mov	dptr,#(_enableESP_c_1_1 + 0x000b)
   0D18 F0                 3020 	movx	@dptr,a
   0D19 90 F1 BD           3021 	mov	dptr,#(_enableESP_c_1_1 + 0x000c)
   0D1C E4                 3022 	clr	a
   0D1D F0                 3023 	movx	@dptr,a
   0D1E 90 F1 BE           3024 	mov	dptr,#(_enableESP_c_1_1 + 0x000d)
   0D21 F0                 3025 	movx	@dptr,a
   0D22 90 F1 BF           3026 	mov	dptr,#(_enableESP_c_1_1 + 0x000e)
   0D25 F0                 3027 	movx	@dptr,a
   0D26 90 F1 C0           3028 	mov	dptr,#(_enableESP_c_1_1 + 0x000f)
   0D29 F0                 3029 	movx	@dptr,a
   0D2A 90 F1 C1           3030 	mov	dptr,#(_enableESP_c_1_1 + 0x0010)
   0D2D E4                 3031 	clr	a
   0D2E F0                 3032 	movx	@dptr,a
   0D2F 90 F1 C2           3033 	mov	dptr,#(_enableESP_c_1_1 + 0x0011)
   0D32 F0                 3034 	movx	@dptr,a
   0D33 90 F1 C3           3035 	mov	dptr,#(_enableESP_c_1_1 + 0x0012)
   0D36 F0                 3036 	movx	@dptr,a
   0D37 90 F1 C4           3037 	mov	dptr,#(_enableESP_c_1_1 + 0x0013)
   0D3A F0                 3038 	movx	@dptr,a
   0D3B 90 F1 C5           3039 	mov	dptr,#(_enableESP_c_1_1 + 0x0014)
   0D3E E4                 3040 	clr	a
   0D3F F0                 3041 	movx	@dptr,a
   0D40 90 F1 C6           3042 	mov	dptr,#(_enableESP_c_1_1 + 0x0015)
   0D43 F0                 3043 	movx	@dptr,a
   0D44 90 F1 C7           3044 	mov	dptr,#(_enableESP_c_1_1 + 0x0016)
   0D47 F0                 3045 	movx	@dptr,a
   0D48 90 F1 C8           3046 	mov	dptr,#(_enableESP_c_1_1 + 0x0017)
   0D4B F0                 3047 	movx	@dptr,a
   0D4C 90 F1 C9           3048 	mov	dptr,#(_enableESP_c_1_1 + 0x0018)
   0D4F E4                 3049 	clr	a
   0D50 F0                 3050 	movx	@dptr,a
   0D51 90 F1 CA           3051 	mov	dptr,#(_enableESP_c_1_1 + 0x0019)
   0D54 F0                 3052 	movx	@dptr,a
   0D55 90 F1 CB           3053 	mov	dptr,#(_enableESP_c_1_1 + 0x001a)
   0D58 F0                 3054 	movx	@dptr,a
   0D59 90 F1 CC           3055 	mov	dptr,#(_enableESP_c_1_1 + 0x001b)
   0D5C F0                 3056 	movx	@dptr,a
   0D5D 90 F1 CD           3057 	mov	dptr,#(_enableESP_c_1_1 + 0x001c)
   0D60 E4                 3058 	clr	a
   0D61 F0                 3059 	movx	@dptr,a
   0D62 90 F1 CE           3060 	mov	dptr,#(_enableESP_c_1_1 + 0x001d)
   0D65 F0                 3061 	movx	@dptr,a
   0D66 90 F1 CF           3062 	mov	dptr,#(_enableESP_c_1_1 + 0x001e)
   0D69 F0                 3063 	movx	@dptr,a
   0D6A 90 F1 D0           3064 	mov	dptr,#(_enableESP_c_1_1 + 0x001f)
   0D6D F0                 3065 	movx	@dptr,a
   0D6E 90 F1 D1           3066 	mov	dptr,#(_enableESP_c_1_1 + 0x0020)
   0D71 E4                 3067 	clr	a
   0D72 F0                 3068 	movx	@dptr,a
   0D73 90 F1 D2           3069 	mov	dptr,#(_enableESP_c_1_1 + 0x0021)
   0D76 F0                 3070 	movx	@dptr,a
   0D77 90 F1 D3           3071 	mov	dptr,#(_enableESP_c_1_1 + 0x0022)
   0D7A F0                 3072 	movx	@dptr,a
   0D7B 90 F1 D4           3073 	mov	dptr,#(_enableESP_c_1_1 + 0x0023)
   0D7E F0                 3074 	movx	@dptr,a
   0D7F 90 F1 D5           3075 	mov	dptr,#(_enableESP_c_1_1 + 0x0024)
   0D82 E4                 3076 	clr	a
   0D83 F0                 3077 	movx	@dptr,a
   0D84 90 F1 D6           3078 	mov	dptr,#(_enableESP_c_1_1 + 0x0025)
   0D87 F0                 3079 	movx	@dptr,a
   0D88 90 F1 D7           3080 	mov	dptr,#(_enableESP_c_1_1 + 0x0026)
   0D8B F0                 3081 	movx	@dptr,a
   0D8C 90 F1 D8           3082 	mov	dptr,#(_enableESP_c_1_1 + 0x0027)
   0D8F F0                 3083 	movx	@dptr,a
   0D90 90 F1 D9           3084 	mov	dptr,#(_enableESP_c_1_1 + 0x0028)
   0D93 E4                 3085 	clr	a
   0D94 F0                 3086 	movx	@dptr,a
   0D95 90 F1 DA           3087 	mov	dptr,#(_enableESP_c_1_1 + 0x0029)
   0D98 F0                 3088 	movx	@dptr,a
   0D99 90 F1 DB           3089 	mov	dptr,#(_enableESP_c_1_1 + 0x002a)
   0D9C F0                 3090 	movx	@dptr,a
   0D9D 90 F1 DC           3091 	mov	dptr,#(_enableESP_c_1_1 + 0x002b)
   0DA0 F0                 3092 	movx	@dptr,a
   0DA1 90 F1 DD           3093 	mov	dptr,#(_enableESP_c_1_1 + 0x002c)
   0DA4 E4                 3094 	clr	a
   0DA5 F0                 3095 	movx	@dptr,a
   0DA6 90 F1 DE           3096 	mov	dptr,#(_enableESP_c_1_1 + 0x002d)
   0DA9 F0                 3097 	movx	@dptr,a
   0DAA 90 F1 DF           3098 	mov	dptr,#(_enableESP_c_1_1 + 0x002e)
   0DAD F0                 3099 	movx	@dptr,a
   0DAE 90 F1 E0           3100 	mov	dptr,#(_enableESP_c_1_1 + 0x002f)
   0DB1 F0                 3101 	movx	@dptr,a
   0DB2 90 F1 E1           3102 	mov	dptr,#(_enableESP_c_1_1 + 0x0030)
   0DB5 E4                 3103 	clr	a
   0DB6 F0                 3104 	movx	@dptr,a
   0DB7 90 F1 E2           3105 	mov	dptr,#(_enableESP_c_1_1 + 0x0031)
   0DBA F0                 3106 	movx	@dptr,a
   0DBB 90 F1 E3           3107 	mov	dptr,#(_enableESP_c_1_1 + 0x0032)
   0DBE F0                 3108 	movx	@dptr,a
   0DBF 90 F1 E4           3109 	mov	dptr,#(_enableESP_c_1_1 + 0x0033)
   0DC2 F0                 3110 	movx	@dptr,a
   0DC3 90 F1 E5           3111 	mov	dptr,#(_enableESP_c_1_1 + 0x0034)
   0DC6 E4                 3112 	clr	a
   0DC7 F0                 3113 	movx	@dptr,a
   0DC8 90 F1 E6           3114 	mov	dptr,#(_enableESP_c_1_1 + 0x0035)
   0DCB F0                 3115 	movx	@dptr,a
   0DCC 90 F1 E7           3116 	mov	dptr,#(_enableESP_c_1_1 + 0x0036)
   0DCF F0                 3117 	movx	@dptr,a
   0DD0 90 F1 E8           3118 	mov	dptr,#(_enableESP_c_1_1 + 0x0037)
   0DD3 F0                 3119 	movx	@dptr,a
   0DD4 90 F1 E9           3120 	mov	dptr,#(_enableESP_c_1_1 + 0x0038)
   0DD7 E4                 3121 	clr	a
   0DD8 F0                 3122 	movx	@dptr,a
   0DD9 90 F1 EA           3123 	mov	dptr,#(_enableESP_c_1_1 + 0x0039)
   0DDC F0                 3124 	movx	@dptr,a
   0DDD 90 F1 EB           3125 	mov	dptr,#(_enableESP_c_1_1 + 0x003a)
   0DE0 F0                 3126 	movx	@dptr,a
   0DE1 90 F1 EC           3127 	mov	dptr,#(_enableESP_c_1_1 + 0x003b)
   0DE4 F0                 3128 	movx	@dptr,a
   0DE5 90 F1 ED           3129 	mov	dptr,#(_enableESP_c_1_1 + 0x003c)
   0DE8 E4                 3130 	clr	a
   0DE9 F0                 3131 	movx	@dptr,a
   0DEA 90 F1 EE           3132 	mov	dptr,#(_enableESP_c_1_1 + 0x003d)
   0DED F0                 3133 	movx	@dptr,a
   0DEE 90 F1 EF           3134 	mov	dptr,#(_enableESP_c_1_1 + 0x003e)
   0DF1 F0                 3135 	movx	@dptr,a
   0DF2 90 F1 F0           3136 	mov	dptr,#(_enableESP_c_1_1 + 0x003f)
   0DF5 F0                 3137 	movx	@dptr,a
   0DF6 90 F1 F1           3138 	mov	dptr,#(_enableESP_c_1_1 + 0x0040)
   0DF9 E4                 3139 	clr	a
   0DFA F0                 3140 	movx	@dptr,a
   0DFB 90 F1 F2           3141 	mov	dptr,#(_enableESP_c_1_1 + 0x0041)
   0DFE F0                 3142 	movx	@dptr,a
   0DFF 90 F1 F3           3143 	mov	dptr,#(_enableESP_c_1_1 + 0x0042)
   0E02 F0                 3144 	movx	@dptr,a
   0E03 90 F1 F4           3145 	mov	dptr,#(_enableESP_c_1_1 + 0x0043)
   0E06 F0                 3146 	movx	@dptr,a
   0E07 90 F1 F5           3147 	mov	dptr,#(_enableESP_c_1_1 + 0x0044)
   0E0A E4                 3148 	clr	a
   0E0B F0                 3149 	movx	@dptr,a
   0E0C 90 F1 F6           3150 	mov	dptr,#(_enableESP_c_1_1 + 0x0045)
   0E0F F0                 3151 	movx	@dptr,a
   0E10 90 F1 F7           3152 	mov	dptr,#(_enableESP_c_1_1 + 0x0046)
   0E13 F0                 3153 	movx	@dptr,a
   0E14 90 F1 F8           3154 	mov	dptr,#(_enableESP_c_1_1 + 0x0047)
   0E17 F0                 3155 	movx	@dptr,a
   0E18 90 F1 F9           3156 	mov	dptr,#(_enableESP_c_1_1 + 0x0048)
   0E1B E4                 3157 	clr	a
   0E1C F0                 3158 	movx	@dptr,a
   0E1D 90 F1 FA           3159 	mov	dptr,#(_enableESP_c_1_1 + 0x0049)
   0E20 F0                 3160 	movx	@dptr,a
   0E21 90 F1 FB           3161 	mov	dptr,#(_enableESP_c_1_1 + 0x004a)
   0E24 F0                 3162 	movx	@dptr,a
   0E25 90 F1 FC           3163 	mov	dptr,#(_enableESP_c_1_1 + 0x004b)
   0E28 F0                 3164 	movx	@dptr,a
   0E29 90 F1 FD           3165 	mov	dptr,#(_enableESP_c_1_1 + 0x004c)
   0E2C E4                 3166 	clr	a
   0E2D F0                 3167 	movx	@dptr,a
   0E2E 90 F1 FE           3168 	mov	dptr,#(_enableESP_c_1_1 + 0x004d)
   0E31 F0                 3169 	movx	@dptr,a
   0E32 90 F1 FF           3170 	mov	dptr,#(_enableESP_c_1_1 + 0x004e)
   0E35 F0                 3171 	movx	@dptr,a
   0E36 90 F2 00           3172 	mov	dptr,#(_enableESP_c_1_1 + 0x004f)
   0E39 F0                 3173 	movx	@dptr,a
                    080B   3174 	C$ydrip.c$355$1$1 ==.
                           3175 ;	apps/ydrip/ydrip.c:355: XDATA char nofile[] = "cannot";
   0E3A 90 F2 01           3176 	mov	dptr,#_enableESP_nofile_1_1
   0E3D 74 63              3177 	mov	a,#0x63
   0E3F F0                 3178 	movx	@dptr,a
   0E40 90 F2 02           3179 	mov	dptr,#(_enableESP_nofile_1_1 + 0x0001)
   0E43 74 61              3180 	mov	a,#0x61
   0E45 F0                 3181 	movx	@dptr,a
   0E46 90 F2 03           3182 	mov	dptr,#(_enableESP_nofile_1_1 + 0x0002)
   0E49 74 6E              3183 	mov	a,#0x6E
   0E4B F0                 3184 	movx	@dptr,a
   0E4C 90 F2 04           3185 	mov	dptr,#(_enableESP_nofile_1_1 + 0x0003)
   0E4F 74 6E              3186 	mov	a,#0x6E
   0E51 F0                 3187 	movx	@dptr,a
   0E52 90 F2 05           3188 	mov	dptr,#(_enableESP_nofile_1_1 + 0x0004)
   0E55 74 6F              3189 	mov	a,#0x6F
   0E57 F0                 3190 	movx	@dptr,a
   0E58 90 F2 06           3191 	mov	dptr,#(_enableESP_nofile_1_1 + 0x0005)
   0E5B 74 74              3192 	mov	a,#0x74
   0E5D F0                 3193 	movx	@dptr,a
   0E5E 90 F2 07           3194 	mov	dptr,#(_enableESP_nofile_1_1 + 0x0006)
   0E61 E4                 3195 	clr	a
   0E62 F0                 3196 	movx	@dptr,a
                    0834   3197 	C$ydrip.c$359$1$1 ==.
                           3198 ;	apps/ydrip/ydrip.c:359: if (debug_mode) {
   0E63 30 03 2C           3199 	jnb	_debug_mode,00102$
                    0837   3200 	C$ydrip.c$360$3$3 ==.
                           3201 ;	apps/ydrip/ydrip.c:360: LED_YELLOW(1);	LED_RED(1);	delayMs(1500);				// Let it do startup messages etc.
   0E66 43 FF 04           3202 	orl	_P2DIR,#0x04
   0E69 43 FF 02           3203 	orl	_P2DIR,#0x02
   0E6C 90 05 DC           3204 	mov	dptr,#0x05DC
   0E6F 12 4C EF           3205 	lcall	_delayMs
                    0843   3206 	C$ydrip.c$361$3$5 ==.
                           3207 ;	apps/ydrip/ydrip.c:361: LED_YELLOW(0);	LED_RED(0);	delayMs(1000);				// Let it do startup messages etc.
   0E72 AF FF              3208 	mov	r7,_P2DIR
   0E74 53 07 FB           3209 	anl	ar7,#0xFB
   0E77 8F FF              3210 	mov	_P2DIR,r7
   0E79 AF FF              3211 	mov	r7,_P2DIR
   0E7B 53 07 FD           3212 	anl	ar7,#0xFD
   0E7E 8F FF              3213 	mov	_P2DIR,r7
   0E80 90 03 E8           3214 	mov	dptr,#0x03E8
   0E83 12 4C EF           3215 	lcall	_delayMs
                    0857   3216 	C$ydrip.c$362$3$7 ==.
                           3217 ;	apps/ydrip/ydrip.c:362: LED_YELLOW(1);	LED_RED(1);	delayMs(1500);				// Let it do startup messages etc.
   0E86 43 FF 04           3218 	orl	_P2DIR,#0x04
   0E89 43 FF 02           3219 	orl	_P2DIR,#0x02
   0E8C 90 05 DC           3220 	mov	dptr,#0x05DC
   0E8F 12 4C EF           3221 	lcall	_delayMs
   0E92                    3222 00102$:
                    0863   3223 	C$ydrip.c$364$1$1 ==.
                           3224 ;	apps/ydrip/ydrip.c:364: setDigitalOutput(10,HIGH);									// Set pin high in order to reset the ESP
   0E92 D2 F0              3225 	setb	b[0]
   0E94 85 F0 25           3226 	mov	bits,b
   0E97 75 82 0A           3227 	mov	dpl,#0x0A
   0E9A 12 58 21           3228 	lcall	_setDigitalOutput
                    086E   3229 	C$ydrip.c$365$1$1 ==.
                           3230 ;	apps/ydrip/ydrip.c:365: boardService();
   0E9D 12 40 C2           3231 	lcall	_boardService
                    0871   3232 	C$ydrip.c$366$1$1 ==.
                           3233 ;	apps/ydrip/ydrip.c:366: delayMs(500);												// Wait .2 seconds
   0EA0 90 01 F4           3234 	mov	dptr,#0x01F4
   0EA3 12 4C EF           3235 	lcall	_delayMs
                    0877   3236 	C$ydrip.c$367$1$1 ==.
                           3237 ;	apps/ydrip/ydrip.c:367: setDigitalInput(10,HIGH_IMPEDANCE);							// Have to release it afterwards to let it start functioning
   0EA6 C2 F0              3238 	clr	b[0]
   0EA8 85 F0 25           3239 	mov	bits,b
   0EAB 75 82 0A           3240 	mov	dpl,#0x0A
   0EAE 12 59 1A           3241 	lcall	_setDigitalInput
                    0882   3242 	C$ydrip.c$368$1$1 ==.
                           3243 ;	apps/ydrip/ydrip.c:368: boardService();
   0EB1 12 40 C2           3244 	lcall	_boardService
                    0885   3245 	C$ydrip.c$370$2$9 ==.
                           3246 ;	apps/ydrip/ydrip.c:370: LED_YELLOW(0);	delayMs(3000);								// Let it do startup messages etc.
   0EB4 AF FF              3247 	mov	r7,_P2DIR
   0EB6 53 07 FB           3248 	anl	ar7,#0xFB
   0EB9 8F FF              3249 	mov	_P2DIR,r7
   0EBB 90 0B B8           3250 	mov	dptr,#0x0BB8
   0EBE 12 4C EF           3251 	lcall	_delayMs
                    0892   3252 	C$ydrip.c$371$2$10 ==.
                           3253 ;	apps/ydrip/ydrip.c:371: LED_RED(0);    uartEnable();								// Enable the serial connection
   0EC1 AF FF              3254 	mov	r7,_P2DIR
   0EC3 53 07 FD           3255 	anl	ar7,#0xFD
   0EC6 8F FF              3256 	mov	_P2DIR,r7
   0EC8 12 06 5C           3257 	lcall	_uartEnable
                    089C   3258 	C$ydrip.c$373$1$1 ==.
                           3259 ;	apps/ydrip/ydrip.c:373: strcpy(c, (getESPString())); // Clear buffer
   0ECB 12 09 FE           3260 	lcall	_getESPString
   0ECE AE 82              3261 	mov	r6,dpl
   0ED0 AF 83              3262 	mov	r7,dph
   0ED2 78 5E              3263 	mov	r0,#_strcpy_PARM_2
   0ED4 EE                 3264 	mov	a,r6
   0ED5 F2                 3265 	movx	@r0,a
   0ED6 08                 3266 	inc	r0
   0ED7 EF                 3267 	mov	a,r7
   0ED8 F2                 3268 	movx	@r0,a
   0ED9 08                 3269 	inc	r0
   0EDA E4                 3270 	clr	a
   0EDB F2                 3271 	movx	@r0,a
   0EDC 90 F1 B1           3272 	mov	dptr,#_enableESP_c_1_1
   0EDF 75 F0 00           3273 	mov	b,#0x00
   0EE2 12 31 E6           3274 	lcall	_strcpy
                    08B6   3275 	C$ydrip.c$374$1$1 ==.
                           3276 ;	apps/ydrip/ydrip.c:374: printf("dofile(\"init.lua\")\r\n");; delayMs(5000);
   0EE5 74 A7              3277 	mov	a,#__str_1
   0EE7 C0 E0              3278 	push	acc
   0EE9 74 5C              3279 	mov	a,#(__str_1 >> 8)
   0EEB C0 E0              3280 	push	acc
   0EED 74 80              3281 	mov	a,#0x80
   0EEF C0 E0              3282 	push	acc
   0EF1 12 50 CA           3283 	lcall	_printf
   0EF4 15 81              3284 	dec	sp
   0EF6 15 81              3285 	dec	sp
   0EF8 15 81              3286 	dec	sp
   0EFA 90 13 88           3287 	mov	dptr,#0x1388
   0EFD 12 4C EF           3288 	lcall	_delayMs
                    08D1   3289 	C$ydrip.c$375$1$1 ==.
                           3290 ;	apps/ydrip/ydrip.c:375: strcpy(c, (getESPString())); // Clear buffer
   0F00 12 09 FE           3291 	lcall	_getESPString
   0F03 AE 82              3292 	mov	r6,dpl
   0F05 AF 83              3293 	mov	r7,dph
   0F07 78 5E              3294 	mov	r0,#_strcpy_PARM_2
   0F09 EE                 3295 	mov	a,r6
   0F0A F2                 3296 	movx	@r0,a
   0F0B 08                 3297 	inc	r0
   0F0C EF                 3298 	mov	a,r7
   0F0D F2                 3299 	movx	@r0,a
   0F0E 08                 3300 	inc	r0
   0F0F E4                 3301 	clr	a
   0F10 F2                 3302 	movx	@r0,a
   0F11 90 F1 B1           3303 	mov	dptr,#_enableESP_c_1_1
   0F14 75 F0 00           3304 	mov	b,#0x00
   0F17 12 31 E6           3305 	lcall	_strcpy
                    08EB   3306 	C$ydrip.c$376$1$1 ==.
                           3307 ;	apps/ydrip/ydrip.c:376: clen = strlen(c);
   0F1A 90 F1 B1           3308 	mov	dptr,#_enableESP_c_1_1
   0F1D 75 F0 00           3309 	mov	b,#0x00
   0F20 12 58 09           3310 	lcall	_strlen
   0F23 AE 82              3311 	mov	r6,dpl
   0F25 AF 83              3312 	mov	r7,dph
   0F27 90 F2 08           3313 	mov	dptr,#_enableESP_clen_1_1
   0F2A EE                 3314 	mov	a,r6
   0F2B F0                 3315 	movx	@dptr,a
   0F2C A3                 3316 	inc	dptr
   0F2D EF                 3317 	mov	a,r7
   0F2E F0                 3318 	movx	@dptr,a
                    0900   3319 	C$ydrip.c$377$1$1 ==.
                           3320 ;	apps/ydrip/ydrip.c:377: point = strstr(c,nofile);									// Find the word "cannot".  The variable "point" will be null if that text if init.lua runs OK.
   0F2F 78 8D              3321 	mov	r0,#_strstr_PARM_2
   0F31 74 01              3322 	mov	a,#_enableESP_nofile_1_1
   0F33 F2                 3323 	movx	@r0,a
   0F34 08                 3324 	inc	r0
   0F35 74 F2              3325 	mov	a,#(_enableESP_nofile_1_1 >> 8)
   0F37 F2                 3326 	movx	@r0,a
   0F38 08                 3327 	inc	r0
   0F39 E4                 3328 	clr	a
   0F3A F2                 3329 	movx	@r0,a
   0F3B 90 F1 B1           3330 	mov	dptr,#_enableESP_c_1_1
   0F3E 75 F0 00           3331 	mov	b,#0x00
   0F41 12 36 A4           3332 	lcall	_strstr
   0F44 AD 82              3333 	mov	r5,dpl
   0F46 AE 83              3334 	mov	r6,dph
   0F48 AF F0              3335 	mov	r7,b
                    091B   3336 	C$ydrip.c$379$1$1 ==.
                           3337 ;	apps/ydrip/ydrip.c:379: if (point == NULL) {										// This check doesn't seem to work.  I might need to check the pointer contents
   0F4A ED                 3338 	mov	a,r5
   0F4B 4E                 3339 	orl	a,r6
   0F4C 70 2B              3340 	jnz	00104$
                    091F   3341 	C$ydrip.c$380$2$11 ==.
                           3342 ;	apps/ydrip/ydrip.c:380: printf("-- No need to write out .lua files as they seem to already exist --\r\n");; delayMs(defaultWaitTime);
   0F4E 74 BC              3343 	mov	a,#__str_2
   0F50 C0 E0              3344 	push	acc
   0F52 74 5C              3345 	mov	a,#(__str_2 >> 8)
   0F54 C0 E0              3346 	push	acc
   0F56 74 80              3347 	mov	a,#0x80
   0F58 C0 E0              3348 	push	acc
   0F5A 12 50 CA           3349 	lcall	_printf
   0F5D 15 81              3350 	dec	sp
   0F5F 15 81              3351 	dec	sp
   0F61 15 81              3352 	dec	sp
   0F63 90 F8 74           3353 	mov	dptr,#_defaultWaitTime
   0F66 E0                 3354 	movx	a,@dptr
   0F67 FC                 3355 	mov	r4,a
   0F68 A3                 3356 	inc	dptr
   0F69 E0                 3357 	movx	a,@dptr
   0F6A FD                 3358 	mov	r5,a
   0F6B A3                 3359 	inc	dptr
   0F6C E0                 3360 	movx	a,@dptr
   0F6D A3                 3361 	inc	dptr
   0F6E E0                 3362 	movx	a,@dptr
   0F6F 8C 82              3363 	mov	dpl,r4
   0F71 8D 83              3364 	mov	dph,r5
   0F73 12 4C EF           3365 	lcall	_delayMs
   0F76 02 14 9D           3366 	ljmp	00106$
   0F79                    3367 00104$:
                    094A   3368 	C$ydrip.c$384$2$12 ==.
                           3369 ;	apps/ydrip/ydrip.c:384: printf("-- Writing out .lua files as they cannot be found --\r\n"); delayMs(defaultWaitTime);
   0F79 74 02              3370 	mov	a,#__str_3
   0F7B C0 E0              3371 	push	acc
   0F7D 74 5D              3372 	mov	a,#(__str_3 >> 8)
   0F7F C0 E0              3373 	push	acc
   0F81 74 80              3374 	mov	a,#0x80
   0F83 C0 E0              3375 	push	acc
   0F85 12 50 CA           3376 	lcall	_printf
   0F88 15 81              3377 	dec	sp
   0F8A 15 81              3378 	dec	sp
   0F8C 15 81              3379 	dec	sp
   0F8E 90 F8 74           3380 	mov	dptr,#_defaultWaitTime
   0F91 E0                 3381 	movx	a,@dptr
   0F92 FC                 3382 	mov	r4,a
   0F93 A3                 3383 	inc	dptr
   0F94 E0                 3384 	movx	a,@dptr
   0F95 FD                 3385 	mov	r5,a
   0F96 A3                 3386 	inc	dptr
   0F97 E0                 3387 	movx	a,@dptr
   0F98 A3                 3388 	inc	dptr
   0F99 E0                 3389 	movx	a,@dptr
   0F9A 8C 82              3390 	mov	dpl,r4
   0F9C 8D 83              3391 	mov	dph,r5
   0F9E 12 4C EF           3392 	lcall	_delayMs
                    0972   3393 	C$ydrip.c$385$2$12 ==.
                           3394 ;	apps/ydrip/ydrip.c:385: printf("-- Length is %d\r\n",clen); delayMs(defaultWaitTime);
   0FA1 90 F2 08           3395 	mov	dptr,#_enableESP_clen_1_1
   0FA4 E0                 3396 	movx	a,@dptr
   0FA5 C0 E0              3397 	push	acc
   0FA7 A3                 3398 	inc	dptr
   0FA8 E0                 3399 	movx	a,@dptr
   0FA9 C0 E0              3400 	push	acc
   0FAB 74 39              3401 	mov	a,#__str_4
   0FAD C0 E0              3402 	push	acc
   0FAF 74 5D              3403 	mov	a,#(__str_4 >> 8)
   0FB1 C0 E0              3404 	push	acc
   0FB3 74 80              3405 	mov	a,#0x80
   0FB5 C0 E0              3406 	push	acc
   0FB7 12 50 CA           3407 	lcall	_printf
   0FBA E5 81              3408 	mov	a,sp
   0FBC 24 FB              3409 	add	a,#0xfb
   0FBE F5 81              3410 	mov	sp,a
   0FC0 90 F8 74           3411 	mov	dptr,#_defaultWaitTime
   0FC3 E0                 3412 	movx	a,@dptr
   0FC4 FC                 3413 	mov	r4,a
   0FC5 A3                 3414 	inc	dptr
   0FC6 E0                 3415 	movx	a,@dptr
   0FC7 FD                 3416 	mov	r5,a
   0FC8 A3                 3417 	inc	dptr
   0FC9 E0                 3418 	movx	a,@dptr
   0FCA A3                 3419 	inc	dptr
   0FCB E0                 3420 	movx	a,@dptr
   0FCC 8C 82              3421 	mov	dpl,r4
   0FCE 8D 83              3422 	mov	dph,r5
   0FD0 12 4C EF           3423 	lcall	_delayMs
                    09A4   3424 	C$ydrip.c$387$2$12 ==.
                           3425 ;	apps/ydrip/ydrip.c:387: printf("file.open(\"init.lua\", \"w\")\r\n");; delayMs(defaultWaitTime)	; delayMs(defaultWaitTime);
   0FD3 74 4B              3426 	mov	a,#__str_5
   0FD5 C0 E0              3427 	push	acc
   0FD7 74 5D              3428 	mov	a,#(__str_5 >> 8)
   0FD9 C0 E0              3429 	push	acc
   0FDB 74 80              3430 	mov	a,#0x80
   0FDD C0 E0              3431 	push	acc
   0FDF 12 50 CA           3432 	lcall	_printf
   0FE2 15 81              3433 	dec	sp
   0FE4 15 81              3434 	dec	sp
   0FE6 15 81              3435 	dec	sp
   0FE8 90 F8 74           3436 	mov	dptr,#_defaultWaitTime
   0FEB E0                 3437 	movx	a,@dptr
   0FEC FC                 3438 	mov	r4,a
   0FED A3                 3439 	inc	dptr
   0FEE E0                 3440 	movx	a,@dptr
   0FEF FD                 3441 	mov	r5,a
   0FF0 A3                 3442 	inc	dptr
   0FF1 E0                 3443 	movx	a,@dptr
   0FF2 A3                 3444 	inc	dptr
   0FF3 E0                 3445 	movx	a,@dptr
   0FF4 8C 82              3446 	mov	dpl,r4
   0FF6 8D 83              3447 	mov	dph,r5
   0FF8 12 4C EF           3448 	lcall	_delayMs
   0FFB 90 F8 74           3449 	mov	dptr,#_defaultWaitTime
   0FFE E0                 3450 	movx	a,@dptr
   0FFF FC                 3451 	mov	r4,a
   1000 A3                 3452 	inc	dptr
   1001 E0                 3453 	movx	a,@dptr
   1002 FD                 3454 	mov	r5,a
   1003 A3                 3455 	inc	dptr
   1004 E0                 3456 	movx	a,@dptr
   1005 A3                 3457 	inc	dptr
   1006 E0                 3458 	movx	a,@dptr
   1007 8C 82              3459 	mov	dpl,r4
   1009 8D 83              3460 	mov	dph,r5
   100B 12 4C EF           3461 	lcall	_delayMs
                    09DF   3462 	C$ydrip.c$388$2$12 ==.
                           3463 ;	apps/ydrip/ydrip.c:388: printf("file.writeline([[gpio.mode(3, gpio.OUTPUT)]])\r\n")				; delayMs(defaultWaitTime);	delayMs(defaultWaitTime);
   100E 74 68              3464 	mov	a,#__str_6
   1010 C0 E0              3465 	push	acc
   1012 74 5D              3466 	mov	a,#(__str_6 >> 8)
   1014 C0 E0              3467 	push	acc
   1016 74 80              3468 	mov	a,#0x80
   1018 C0 E0              3469 	push	acc
   101A 12 50 CA           3470 	lcall	_printf
   101D 15 81              3471 	dec	sp
   101F 15 81              3472 	dec	sp
   1021 15 81              3473 	dec	sp
   1023 90 F8 74           3474 	mov	dptr,#_defaultWaitTime
   1026 E0                 3475 	movx	a,@dptr
   1027 FC                 3476 	mov	r4,a
   1028 A3                 3477 	inc	dptr
   1029 E0                 3478 	movx	a,@dptr
   102A FD                 3479 	mov	r5,a
   102B A3                 3480 	inc	dptr
   102C E0                 3481 	movx	a,@dptr
   102D A3                 3482 	inc	dptr
   102E E0                 3483 	movx	a,@dptr
   102F 8C 82              3484 	mov	dpl,r4
   1031 8D 83              3485 	mov	dph,r5
   1033 12 4C EF           3486 	lcall	_delayMs
   1036 90 F8 74           3487 	mov	dptr,#_defaultWaitTime
   1039 E0                 3488 	movx	a,@dptr
   103A FC                 3489 	mov	r4,a
   103B A3                 3490 	inc	dptr
   103C E0                 3491 	movx	a,@dptr
   103D FD                 3492 	mov	r5,a
   103E A3                 3493 	inc	dptr
   103F E0                 3494 	movx	a,@dptr
   1040 A3                 3495 	inc	dptr
   1041 E0                 3496 	movx	a,@dptr
   1042 8C 82              3497 	mov	dpl,r4
   1044 8D 83              3498 	mov	dph,r5
   1046 12 4C EF           3499 	lcall	_delayMs
                    0A1A   3500 	C$ydrip.c$389$2$12 ==.
                           3501 ;	apps/ydrip/ydrip.c:389: printf("file.writeline([[gpio.write(3, gpio.LOW)]])\r\n")				; delayMs(defaultWaitTime);	delayMs(defaultWaitTime);
   1049 74 98              3502 	mov	a,#__str_7
   104B C0 E0              3503 	push	acc
   104D 74 5D              3504 	mov	a,#(__str_7 >> 8)
   104F C0 E0              3505 	push	acc
   1051 74 80              3506 	mov	a,#0x80
   1053 C0 E0              3507 	push	acc
   1055 12 50 CA           3508 	lcall	_printf
   1058 15 81              3509 	dec	sp
   105A 15 81              3510 	dec	sp
   105C 15 81              3511 	dec	sp
   105E 90 F8 74           3512 	mov	dptr,#_defaultWaitTime
   1061 E0                 3513 	movx	a,@dptr
   1062 FC                 3514 	mov	r4,a
   1063 A3                 3515 	inc	dptr
   1064 E0                 3516 	movx	a,@dptr
   1065 FD                 3517 	mov	r5,a
   1066 A3                 3518 	inc	dptr
   1067 E0                 3519 	movx	a,@dptr
   1068 A3                 3520 	inc	dptr
   1069 E0                 3521 	movx	a,@dptr
   106A 8C 82              3522 	mov	dpl,r4
   106C 8D 83              3523 	mov	dph,r5
   106E 12 4C EF           3524 	lcall	_delayMs
   1071 90 F8 74           3525 	mov	dptr,#_defaultWaitTime
   1074 E0                 3526 	movx	a,@dptr
   1075 FC                 3527 	mov	r4,a
   1076 A3                 3528 	inc	dptr
   1077 E0                 3529 	movx	a,@dptr
   1078 FD                 3530 	mov	r5,a
   1079 A3                 3531 	inc	dptr
   107A E0                 3532 	movx	a,@dptr
   107B A3                 3533 	inc	dptr
   107C E0                 3534 	movx	a,@dptr
   107D 8C 82              3535 	mov	dpl,r4
   107F 8D 83              3536 	mov	dph,r5
   1081 12 4C EF           3537 	lcall	_delayMs
                    0A55   3538 	C$ydrip.c$390$2$12 ==.
                           3539 ;	apps/ydrip/ydrip.c:390: printf("file.writeline([[gpio.mode(5, gpio.OUTPUT)]])\r\n")				; delayMs(defaultWaitTime);	delayMs(defaultWaitTime);
   1084 74 C6              3540 	mov	a,#__str_8
   1086 C0 E0              3541 	push	acc
   1088 74 5D              3542 	mov	a,#(__str_8 >> 8)
   108A C0 E0              3543 	push	acc
   108C 74 80              3544 	mov	a,#0x80
   108E C0 E0              3545 	push	acc
   1090 12 50 CA           3546 	lcall	_printf
   1093 15 81              3547 	dec	sp
   1095 15 81              3548 	dec	sp
   1097 15 81              3549 	dec	sp
   1099 90 F8 74           3550 	mov	dptr,#_defaultWaitTime
   109C E0                 3551 	movx	a,@dptr
   109D FC                 3552 	mov	r4,a
   109E A3                 3553 	inc	dptr
   109F E0                 3554 	movx	a,@dptr
   10A0 FD                 3555 	mov	r5,a
   10A1 A3                 3556 	inc	dptr
   10A2 E0                 3557 	movx	a,@dptr
   10A3 A3                 3558 	inc	dptr
   10A4 E0                 3559 	movx	a,@dptr
   10A5 8C 82              3560 	mov	dpl,r4
   10A7 8D 83              3561 	mov	dph,r5
   10A9 12 4C EF           3562 	lcall	_delayMs
   10AC 90 F8 74           3563 	mov	dptr,#_defaultWaitTime
   10AF E0                 3564 	movx	a,@dptr
   10B0 FC                 3565 	mov	r4,a
   10B1 A3                 3566 	inc	dptr
   10B2 E0                 3567 	movx	a,@dptr
   10B3 FD                 3568 	mov	r5,a
   10B4 A3                 3569 	inc	dptr
   10B5 E0                 3570 	movx	a,@dptr
   10B6 A3                 3571 	inc	dptr
   10B7 E0                 3572 	movx	a,@dptr
   10B8 8C 82              3573 	mov	dpl,r4
   10BA 8D 83              3574 	mov	dph,r5
   10BC 12 4C EF           3575 	lcall	_delayMs
                    0A90   3576 	C$ydrip.c$391$2$12 ==.
                           3577 ;	apps/ydrip/ydrip.c:391: printf("file.writeline([[gpio.write(5, gpio.LOW)]])\r\n")				; delayMs(defaultWaitTime);	delayMs(defaultWaitTime);
   10BF 74 F6              3578 	mov	a,#__str_9
   10C1 C0 E0              3579 	push	acc
   10C3 74 5D              3580 	mov	a,#(__str_9 >> 8)
   10C5 C0 E0              3581 	push	acc
   10C7 74 80              3582 	mov	a,#0x80
   10C9 C0 E0              3583 	push	acc
   10CB 12 50 CA           3584 	lcall	_printf
   10CE 15 81              3585 	dec	sp
   10D0 15 81              3586 	dec	sp
   10D2 15 81              3587 	dec	sp
   10D4 90 F8 74           3588 	mov	dptr,#_defaultWaitTime
   10D7 E0                 3589 	movx	a,@dptr
   10D8 FC                 3590 	mov	r4,a
   10D9 A3                 3591 	inc	dptr
   10DA E0                 3592 	movx	a,@dptr
   10DB FD                 3593 	mov	r5,a
   10DC A3                 3594 	inc	dptr
   10DD E0                 3595 	movx	a,@dptr
   10DE A3                 3596 	inc	dptr
   10DF E0                 3597 	movx	a,@dptr
   10E0 8C 82              3598 	mov	dpl,r4
   10E2 8D 83              3599 	mov	dph,r5
   10E4 12 4C EF           3600 	lcall	_delayMs
   10E7 90 F8 74           3601 	mov	dptr,#_defaultWaitTime
   10EA E0                 3602 	movx	a,@dptr
   10EB FC                 3603 	mov	r4,a
   10EC A3                 3604 	inc	dptr
   10ED E0                 3605 	movx	a,@dptr
   10EE FD                 3606 	mov	r5,a
   10EF A3                 3607 	inc	dptr
   10F0 E0                 3608 	movx	a,@dptr
   10F1 A3                 3609 	inc	dptr
   10F2 E0                 3610 	movx	a,@dptr
   10F3 8C 82              3611 	mov	dpl,r4
   10F5 8D 83              3612 	mov	dph,r5
   10F7 12 4C EF           3613 	lcall	_delayMs
                    0ACB   3614 	C$ydrip.c$392$2$12 ==.
                           3615 ;	apps/ydrip/ydrip.c:392: printf("file.writeline([[gpio.mode(4, gpio.OUTPUT)]])\r\n")				; delayMs(defaultWaitTime);	delayMs(defaultWaitTime);
   10FA 74 24              3616 	mov	a,#__str_10
   10FC C0 E0              3617 	push	acc
   10FE 74 5E              3618 	mov	a,#(__str_10 >> 8)
   1100 C0 E0              3619 	push	acc
   1102 74 80              3620 	mov	a,#0x80
   1104 C0 E0              3621 	push	acc
   1106 12 50 CA           3622 	lcall	_printf
   1109 15 81              3623 	dec	sp
   110B 15 81              3624 	dec	sp
   110D 15 81              3625 	dec	sp
   110F 90 F8 74           3626 	mov	dptr,#_defaultWaitTime
   1112 E0                 3627 	movx	a,@dptr
   1113 FC                 3628 	mov	r4,a
   1114 A3                 3629 	inc	dptr
   1115 E0                 3630 	movx	a,@dptr
   1116 FD                 3631 	mov	r5,a
   1117 A3                 3632 	inc	dptr
   1118 E0                 3633 	movx	a,@dptr
   1119 A3                 3634 	inc	dptr
   111A E0                 3635 	movx	a,@dptr
   111B 8C 82              3636 	mov	dpl,r4
   111D 8D 83              3637 	mov	dph,r5
   111F 12 4C EF           3638 	lcall	_delayMs
   1122 90 F8 74           3639 	mov	dptr,#_defaultWaitTime
   1125 E0                 3640 	movx	a,@dptr
   1126 FC                 3641 	mov	r4,a
   1127 A3                 3642 	inc	dptr
   1128 E0                 3643 	movx	a,@dptr
   1129 FD                 3644 	mov	r5,a
   112A A3                 3645 	inc	dptr
   112B E0                 3646 	movx	a,@dptr
   112C A3                 3647 	inc	dptr
   112D E0                 3648 	movx	a,@dptr
   112E 8C 82              3649 	mov	dpl,r4
   1130 8D 83              3650 	mov	dph,r5
   1132 12 4C EF           3651 	lcall	_delayMs
                    0B06   3652 	C$ydrip.c$393$2$12 ==.
                           3653 ;	apps/ydrip/ydrip.c:393: printf("file.close()\r\n")												; delayMs(defaultWaitTime);
   1135 74 54              3654 	mov	a,#__str_11
   1137 C0 E0              3655 	push	acc
   1139 74 5E              3656 	mov	a,#(__str_11 >> 8)
   113B C0 E0              3657 	push	acc
   113D 74 80              3658 	mov	a,#0x80
   113F C0 E0              3659 	push	acc
   1141 12 50 CA           3660 	lcall	_printf
   1144 15 81              3661 	dec	sp
   1146 15 81              3662 	dec	sp
   1148 15 81              3663 	dec	sp
   114A 90 F8 74           3664 	mov	dptr,#_defaultWaitTime
   114D E0                 3665 	movx	a,@dptr
   114E FC                 3666 	mov	r4,a
   114F A3                 3667 	inc	dptr
   1150 E0                 3668 	movx	a,@dptr
   1151 FD                 3669 	mov	r5,a
   1152 A3                 3670 	inc	dptr
   1153 E0                 3671 	movx	a,@dptr
   1154 A3                 3672 	inc	dptr
   1155 E0                 3673 	movx	a,@dptr
   1156 8C 82              3674 	mov	dpl,r4
   1158 8D 83              3675 	mov	dph,r5
   115A 12 4C EF           3676 	lcall	_delayMs
                    0B2E   3677 	C$ydrip.c$396$2$12 ==.
                           3678 ;	apps/ydrip/ydrip.c:396: printf("file.remove('googletime.lua')\r\n");																		; delayMs(defaultWaitTime);
   115D 74 63              3679 	mov	a,#__str_12
   115F C0 E0              3680 	push	acc
   1161 74 5E              3681 	mov	a,#(__str_12 >> 8)
   1163 C0 E0              3682 	push	acc
   1165 74 80              3683 	mov	a,#0x80
   1167 C0 E0              3684 	push	acc
   1169 12 50 CA           3685 	lcall	_printf
   116C 15 81              3686 	dec	sp
   116E 15 81              3687 	dec	sp
   1170 15 81              3688 	dec	sp
   1172 90 F8 74           3689 	mov	dptr,#_defaultWaitTime
   1175 E0                 3690 	movx	a,@dptr
   1176 FC                 3691 	mov	r4,a
   1177 A3                 3692 	inc	dptr
   1178 E0                 3693 	movx	a,@dptr
   1179 FD                 3694 	mov	r5,a
   117A A3                 3695 	inc	dptr
   117B E0                 3696 	movx	a,@dptr
   117C A3                 3697 	inc	dptr
   117D E0                 3698 	movx	a,@dptr
   117E 8C 82              3699 	mov	dpl,r4
   1180 8D 83              3700 	mov	dph,r5
   1182 12 4C EF           3701 	lcall	_delayMs
                    0B56   3702 	C$ydrip.c$397$2$12 ==.
                           3703 ;	apps/ydrip/ydrip.c:397: printf("file.open(\"googletime.lua\", \"w\")\r\n");										; delayMs(defaultWaitTime); delayMs(defaultWaitTime);
   1185 74 83              3704 	mov	a,#__str_13
   1187 C0 E0              3705 	push	acc
   1189 74 5E              3706 	mov	a,#(__str_13 >> 8)
   118B C0 E0              3707 	push	acc
   118D 74 80              3708 	mov	a,#0x80
   118F C0 E0              3709 	push	acc
   1191 12 50 CA           3710 	lcall	_printf
   1194 15 81              3711 	dec	sp
   1196 15 81              3712 	dec	sp
   1198 15 81              3713 	dec	sp
   119A 90 F8 74           3714 	mov	dptr,#_defaultWaitTime
   119D E0                 3715 	movx	a,@dptr
   119E FC                 3716 	mov	r4,a
   119F A3                 3717 	inc	dptr
   11A0 E0                 3718 	movx	a,@dptr
   11A1 FD                 3719 	mov	r5,a
   11A2 A3                 3720 	inc	dptr
   11A3 E0                 3721 	movx	a,@dptr
   11A4 A3                 3722 	inc	dptr
   11A5 E0                 3723 	movx	a,@dptr
   11A6 8C 82              3724 	mov	dpl,r4
   11A8 8D 83              3725 	mov	dph,r5
   11AA 12 4C EF           3726 	lcall	_delayMs
   11AD 90 F8 74           3727 	mov	dptr,#_defaultWaitTime
   11B0 E0                 3728 	movx	a,@dptr
   11B1 FC                 3729 	mov	r4,a
   11B2 A3                 3730 	inc	dptr
   11B3 E0                 3731 	movx	a,@dptr
   11B4 FD                 3732 	mov	r5,a
   11B5 A3                 3733 	inc	dptr
   11B6 E0                 3734 	movx	a,@dptr
   11B7 A3                 3735 	inc	dptr
   11B8 E0                 3736 	movx	a,@dptr
   11B9 8C 82              3737 	mov	dpl,r4
   11BB 8D 83              3738 	mov	dph,r5
   11BD 12 4C EF           3739 	lcall	_delayMs
                    0B91   3740 	C$ydrip.c$399$2$12 ==.
                           3741 ;	apps/ydrip/ydrip.c:399: printf("file.writeline([[connG=net.createConnection(net.TCP, 0)]])\r\n")											; delayMs(defaultWaitTime);
   11C0 74 A6              3742 	mov	a,#__str_14
   11C2 C0 E0              3743 	push	acc
   11C4 74 5E              3744 	mov	a,#(__str_14 >> 8)
   11C6 C0 E0              3745 	push	acc
   11C8 74 80              3746 	mov	a,#0x80
   11CA C0 E0              3747 	push	acc
   11CC 12 50 CA           3748 	lcall	_printf
   11CF 15 81              3749 	dec	sp
   11D1 15 81              3750 	dec	sp
   11D3 15 81              3751 	dec	sp
   11D5 90 F8 74           3752 	mov	dptr,#_defaultWaitTime
   11D8 E0                 3753 	movx	a,@dptr
   11D9 FC                 3754 	mov	r4,a
   11DA A3                 3755 	inc	dptr
   11DB E0                 3756 	movx	a,@dptr
   11DC FD                 3757 	mov	r5,a
   11DD A3                 3758 	inc	dptr
   11DE E0                 3759 	movx	a,@dptr
   11DF A3                 3760 	inc	dptr
   11E0 E0                 3761 	movx	a,@dptr
   11E1 8C 82              3762 	mov	dpl,r4
   11E3 8D 83              3763 	mov	dph,r5
   11E5 12 4C EF           3764 	lcall	_delayMs
                    0BB9   3765 	C$ydrip.c$400$2$12 ==.
                           3766 ;	apps/ydrip/ydrip.c:400: printf("file.writeline([[connG:on(\"connection\",function(conn, payload)]])\r\n")									; delayMs(defaultWaitTime);
   11E8 74 E3              3767 	mov	a,#__str_15
   11EA C0 E0              3768 	push	acc
   11EC 74 5E              3769 	mov	a,#(__str_15 >> 8)
   11EE C0 E0              3770 	push	acc
   11F0 74 80              3771 	mov	a,#0x80
   11F2 C0 E0              3772 	push	acc
   11F4 12 50 CA           3773 	lcall	_printf
   11F7 15 81              3774 	dec	sp
   11F9 15 81              3775 	dec	sp
   11FB 15 81              3776 	dec	sp
   11FD 90 F8 74           3777 	mov	dptr,#_defaultWaitTime
   1200 E0                 3778 	movx	a,@dptr
   1201 FC                 3779 	mov	r4,a
   1202 A3                 3780 	inc	dptr
   1203 E0                 3781 	movx	a,@dptr
   1204 FD                 3782 	mov	r5,a
   1205 A3                 3783 	inc	dptr
   1206 E0                 3784 	movx	a,@dptr
   1207 A3                 3785 	inc	dptr
   1208 E0                 3786 	movx	a,@dptr
   1209 8C 82              3787 	mov	dpl,r4
   120B 8D 83              3788 	mov	dph,r5
   120D 12 4C EF           3789 	lcall	_delayMs
                    0BE1   3790 	C$ydrip.c$402$2$12 ==.
                           3791 ;	apps/ydrip/ydrip.c:402: printf("file.writeline([[connG:send(\"HEAD / HTTP/1.1\\r\\nHost: google.com\\r\\n\Accept: */*\\r\\n\"..]])\r\n")	; delayMs(defaultWaitTime);
   1210 74 27              3792 	mov	a,#__str_16
   1212 C0 E0              3793 	push	acc
   1214 74 5F              3794 	mov	a,#(__str_16 >> 8)
   1216 C0 E0              3795 	push	acc
   1218 74 80              3796 	mov	a,#0x80
   121A C0 E0              3797 	push	acc
   121C 12 50 CA           3798 	lcall	_printf
   121F 15 81              3799 	dec	sp
   1221 15 81              3800 	dec	sp
   1223 15 81              3801 	dec	sp
   1225 90 F8 74           3802 	mov	dptr,#_defaultWaitTime
   1228 E0                 3803 	movx	a,@dptr
   1229 FC                 3804 	mov	r4,a
   122A A3                 3805 	inc	dptr
   122B E0                 3806 	movx	a,@dptr
   122C FD                 3807 	mov	r5,a
   122D A3                 3808 	inc	dptr
   122E E0                 3809 	movx	a,@dptr
   122F A3                 3810 	inc	dptr
   1230 E0                 3811 	movx	a,@dptr
   1231 8C 82              3812 	mov	dpl,r4
   1233 8D 83              3813 	mov	dph,r5
   1235 12 4C EF           3814 	lcall	_delayMs
                    0C09   3815 	C$ydrip.c$403$2$12 ==.
                           3816 ;	apps/ydrip/ydrip.c:403: printf("file.writeline([[\"User-Agent: Mozilla/4.0 (compatible; esp8266 Lua;)\\r\\n\\r\\n\") end)]])\r\n")			; delayMs(defaultWaitTime);
   1238 74 83              3817 	mov	a,#__str_17
   123A C0 E0              3818 	push	acc
   123C 74 5F              3819 	mov	a,#(__str_17 >> 8)
   123E C0 E0              3820 	push	acc
   1240 74 80              3821 	mov	a,#0x80
   1242 C0 E0              3822 	push	acc
   1244 12 50 CA           3823 	lcall	_printf
   1247 15 81              3824 	dec	sp
   1249 15 81              3825 	dec	sp
   124B 15 81              3826 	dec	sp
   124D 90 F8 74           3827 	mov	dptr,#_defaultWaitTime
   1250 E0                 3828 	movx	a,@dptr
   1251 FC                 3829 	mov	r4,a
   1252 A3                 3830 	inc	dptr
   1253 E0                 3831 	movx	a,@dptr
   1254 FD                 3832 	mov	r5,a
   1255 A3                 3833 	inc	dptr
   1256 E0                 3834 	movx	a,@dptr
   1257 A3                 3835 	inc	dptr
   1258 E0                 3836 	movx	a,@dptr
   1259 8C 82              3837 	mov	dpl,r4
   125B 8D 83              3838 	mov	dph,r5
   125D 12 4C EF           3839 	lcall	_delayMs
                    0C31   3840 	C$ydrip.c$405$2$12 ==.
                           3841 ;	apps/ydrip/ydrip.c:405: printf("file.writeline(\"connG:on(\\\"receive\\\", function(connG, payload)\")\r\n")														; delayMs(defaultWaitTime);
   1260 74 DC              3842 	mov	a,#__str_18
   1262 C0 E0              3843 	push	acc
   1264 74 5F              3844 	mov	a,#(__str_18 >> 8)
   1266 C0 E0              3845 	push	acc
   1268 74 80              3846 	mov	a,#0x80
   126A C0 E0              3847 	push	acc
   126C 12 50 CA           3848 	lcall	_printf
   126F 15 81              3849 	dec	sp
   1271 15 81              3850 	dec	sp
   1273 15 81              3851 	dec	sp
   1275 90 F8 74           3852 	mov	dptr,#_defaultWaitTime
   1278 E0                 3853 	movx	a,@dptr
   1279 FC                 3854 	mov	r4,a
   127A A3                 3855 	inc	dptr
   127B E0                 3856 	movx	a,@dptr
   127C FD                 3857 	mov	r5,a
   127D A3                 3858 	inc	dptr
   127E E0                 3859 	movx	a,@dptr
   127F A3                 3860 	inc	dptr
   1280 E0                 3861 	movx	a,@dptr
   1281 8C 82              3862 	mov	dpl,r4
   1283 8D 83              3863 	mov	dph,r5
   1285 12 4C EF           3864 	lcall	_delayMs
                    0C59   3865 	C$ydrip.c$406$2$12 ==.
                           3866 ;	apps/ydrip/ydrip.c:406: printf("file.writeline(\"print(string.sub(payload,string.find(payload,\\\"Date:\\\")+18,string.find(payload,\\\"Date:\\\")+21)..\")\r\n")	; delayMs(defaultWaitTime);
   1288 74 1F              3867 	mov	a,#__str_19
   128A C0 E0              3868 	push	acc
   128C 74 60              3869 	mov	a,#(__str_19 >> 8)
   128E C0 E0              3870 	push	acc
   1290 74 80              3871 	mov	a,#0x80
   1292 C0 E0              3872 	push	acc
   1294 12 50 CA           3873 	lcall	_printf
   1297 15 81              3874 	dec	sp
   1299 15 81              3875 	dec	sp
   129B 15 81              3876 	dec	sp
   129D 90 F8 74           3877 	mov	dptr,#_defaultWaitTime
   12A0 E0                 3878 	movx	a,@dptr
   12A1 FC                 3879 	mov	r4,a
   12A2 A3                 3880 	inc	dptr
   12A3 E0                 3881 	movx	a,@dptr
   12A4 FD                 3882 	mov	r5,a
   12A5 A3                 3883 	inc	dptr
   12A6 E0                 3884 	movx	a,@dptr
   12A7 A3                 3885 	inc	dptr
   12A8 E0                 3886 	movx	a,@dptr
   12A9 8C 82              3887 	mov	dpl,r4
   12AB 8D 83              3888 	mov	dph,r5
   12AD 12 4C EF           3889 	lcall	_delayMs
                    0C81   3890 	C$ydrip.c$407$2$12 ==.
                           3891 ;	apps/ydrip/ydrip.c:407: printf("file.writeline(\"string.sub(payload,string.find(payload,\\\"Date:\\\")+15,string.find(payload,\\\"Date:\\\")+16)..\")\r\n")			; delayMs(defaultWaitTime);
   12B0 74 93              3892 	mov	a,#__str_20
   12B2 C0 E0              3893 	push	acc
   12B4 74 60              3894 	mov	a,#(__str_20 >> 8)
   12B6 C0 E0              3895 	push	acc
   12B8 74 80              3896 	mov	a,#0x80
   12BA C0 E0              3897 	push	acc
   12BC 12 50 CA           3898 	lcall	_printf
   12BF 15 81              3899 	dec	sp
   12C1 15 81              3900 	dec	sp
   12C3 15 81              3901 	dec	sp
   12C5 90 F8 74           3902 	mov	dptr,#_defaultWaitTime
   12C8 E0                 3903 	movx	a,@dptr
   12C9 FC                 3904 	mov	r4,a
   12CA A3                 3905 	inc	dptr
   12CB E0                 3906 	movx	a,@dptr
   12CC FD                 3907 	mov	r5,a
   12CD A3                 3908 	inc	dptr
   12CE E0                 3909 	movx	a,@dptr
   12CF A3                 3910 	inc	dptr
   12D0 E0                 3911 	movx	a,@dptr
   12D1 8C 82              3912 	mov	dpl,r4
   12D3 8D 83              3913 	mov	dph,r5
   12D5 12 4C EF           3914 	lcall	_delayMs
                    0CA9   3915 	C$ydrip.c$408$2$12 ==.
                           3916 ;	apps/ydrip/ydrip.c:408: printf("file.writeline(\"string.sub(payload,string.find(payload,\\\"Date:\\\")+11,string.find(payload,\\\"Date:\\\")+12)..\")\r\n")			; delayMs(defaultWaitTime);
   12D8 74 01              3917 	mov	a,#__str_21
   12DA C0 E0              3918 	push	acc
   12DC 74 61              3919 	mov	a,#(__str_21 >> 8)
   12DE C0 E0              3920 	push	acc
   12E0 74 80              3921 	mov	a,#0x80
   12E2 C0 E0              3922 	push	acc
   12E4 12 50 CA           3923 	lcall	_printf
   12E7 15 81              3924 	dec	sp
   12E9 15 81              3925 	dec	sp
   12EB 15 81              3926 	dec	sp
   12ED 90 F8 74           3927 	mov	dptr,#_defaultWaitTime
   12F0 E0                 3928 	movx	a,@dptr
   12F1 FC                 3929 	mov	r4,a
   12F2 A3                 3930 	inc	dptr
   12F3 E0                 3931 	movx	a,@dptr
   12F4 FD                 3932 	mov	r5,a
   12F5 A3                 3933 	inc	dptr
   12F6 E0                 3934 	movx	a,@dptr
   12F7 A3                 3935 	inc	dptr
   12F8 E0                 3936 	movx	a,@dptr
   12F9 8C 82              3937 	mov	dpl,r4
   12FB 8D 83              3938 	mov	dph,r5
   12FD 12 4C EF           3939 	lcall	_delayMs
                    0CD1   3940 	C$ydrip.c$409$2$12 ==.
                           3941 ;	apps/ydrip/ydrip.c:409: printf("file.writeline(\"string.sub(payload,string.find(payload,\\\"Date:\\\")+23,string.find(payload,\\\"Date:\\\")+24)..\")\r\n")			; delayMs(defaultWaitTime);
   1300 74 6F              3942 	mov	a,#__str_22
   1302 C0 E0              3943 	push	acc
   1304 74 61              3944 	mov	a,#(__str_22 >> 8)
   1306 C0 E0              3945 	push	acc
   1308 74 80              3946 	mov	a,#0x80
   130A C0 E0              3947 	push	acc
   130C 12 50 CA           3948 	lcall	_printf
   130F 15 81              3949 	dec	sp
   1311 15 81              3950 	dec	sp
   1313 15 81              3951 	dec	sp
   1315 90 F8 74           3952 	mov	dptr,#_defaultWaitTime
   1318 E0                 3953 	movx	a,@dptr
   1319 FC                 3954 	mov	r4,a
   131A A3                 3955 	inc	dptr
   131B E0                 3956 	movx	a,@dptr
   131C FD                 3957 	mov	r5,a
   131D A3                 3958 	inc	dptr
   131E E0                 3959 	movx	a,@dptr
   131F A3                 3960 	inc	dptr
   1320 E0                 3961 	movx	a,@dptr
   1321 8C 82              3962 	mov	dpl,r4
   1323 8D 83              3963 	mov	dph,r5
   1325 12 4C EF           3964 	lcall	_delayMs
                    0CF9   3965 	C$ydrip.c$410$2$12 ==.
                           3966 ;	apps/ydrip/ydrip.c:410: printf("file.writeline(\"string.sub(payload,string.find(payload,\\\"Date:\\\")+26,string.find(payload,\\\"Date:\\\")+27)..\")\r\n")			; delayMs(defaultWaitTime);
   1328 74 DD              3967 	mov	a,#__str_23
   132A C0 E0              3968 	push	acc
   132C 74 61              3969 	mov	a,#(__str_23 >> 8)
   132E C0 E0              3970 	push	acc
   1330 74 80              3971 	mov	a,#0x80
   1332 C0 E0              3972 	push	acc
   1334 12 50 CA           3973 	lcall	_printf
   1337 15 81              3974 	dec	sp
   1339 15 81              3975 	dec	sp
   133B 15 81              3976 	dec	sp
   133D 90 F8 74           3977 	mov	dptr,#_defaultWaitTime
   1340 E0                 3978 	movx	a,@dptr
   1341 FC                 3979 	mov	r4,a
   1342 A3                 3980 	inc	dptr
   1343 E0                 3981 	movx	a,@dptr
   1344 FD                 3982 	mov	r5,a
   1345 A3                 3983 	inc	dptr
   1346 E0                 3984 	movx	a,@dptr
   1347 A3                 3985 	inc	dptr
   1348 E0                 3986 	movx	a,@dptr
   1349 8C 82              3987 	mov	dpl,r4
   134B 8D 83              3988 	mov	dph,r5
   134D 12 4C EF           3989 	lcall	_delayMs
                    0D21   3990 	C$ydrip.c$411$2$12 ==.
                           3991 ;	apps/ydrip/ydrip.c:411: printf("file.writeline(\"string.sub(payload,string.find(payload,\\\"Date:\\\")+29,string.find(payload,\\\"Date:\\\")+30)..\")\r\n")			; delayMs(defaultWaitTime);
   1350 74 4B              3992 	mov	a,#__str_24
   1352 C0 E0              3993 	push	acc
   1354 74 62              3994 	mov	a,#(__str_24 >> 8)
   1356 C0 E0              3995 	push	acc
   1358 74 80              3996 	mov	a,#0x80
   135A C0 E0              3997 	push	acc
   135C 12 50 CA           3998 	lcall	_printf
   135F 15 81              3999 	dec	sp
   1361 15 81              4000 	dec	sp
   1363 15 81              4001 	dec	sp
   1365 90 F8 74           4002 	mov	dptr,#_defaultWaitTime
   1368 E0                 4003 	movx	a,@dptr
   1369 FC                 4004 	mov	r4,a
   136A A3                 4005 	inc	dptr
   136B E0                 4006 	movx	a,@dptr
   136C FD                 4007 	mov	r5,a
   136D A3                 4008 	inc	dptr
   136E E0                 4009 	movx	a,@dptr
   136F A3                 4010 	inc	dptr
   1370 E0                 4011 	movx	a,@dptr
   1371 8C 82              4012 	mov	dpl,r4
   1373 8D 83              4013 	mov	dph,r5
   1375 12 4C EF           4014 	lcall	_delayMs
                    0D49   4015 	C$ydrip.c$412$2$12 ==.
                           4016 ;	apps/ydrip/ydrip.c:412: printf("file.writeline(\"string.sub(payload,string.find(payload,\\\"Date:\\\")+14,string.find(payload,\\\"Date:\\\")+16)..\\\"\\\\r\\\\n\\\")\")\r\n")	; delayMs(defaultWaitTime);
   1378 74 B9              4017 	mov	a,#__str_25
   137A C0 E0              4018 	push	acc
   137C 74 62              4019 	mov	a,#(__str_25 >> 8)
   137E C0 E0              4020 	push	acc
   1380 74 80              4021 	mov	a,#0x80
   1382 C0 E0              4022 	push	acc
   1384 12 50 CA           4023 	lcall	_printf
   1387 15 81              4024 	dec	sp
   1389 15 81              4025 	dec	sp
   138B 15 81              4026 	dec	sp
   138D 90 F8 74           4027 	mov	dptr,#_defaultWaitTime
   1390 E0                 4028 	movx	a,@dptr
   1391 FC                 4029 	mov	r4,a
   1392 A3                 4030 	inc	dptr
   1393 E0                 4031 	movx	a,@dptr
   1394 FD                 4032 	mov	r5,a
   1395 A3                 4033 	inc	dptr
   1396 E0                 4034 	movx	a,@dptr
   1397 A3                 4035 	inc	dptr
   1398 E0                 4036 	movx	a,@dptr
   1399 8C 82              4037 	mov	dpl,r4
   139B 8D 83              4038 	mov	dph,r5
   139D 12 4C EF           4039 	lcall	_delayMs
                    0D71   4040 	C$ydrip.c$415$2$12 ==.
                           4041 ;	apps/ydrip/ydrip.c:415: printf("file.writeline(\"connG:close()\")\r\n")																		; delayMs(defaultWaitTime);
   13A0 74 32              4042 	mov	a,#__str_26
   13A2 C0 E0              4043 	push	acc
   13A4 74 63              4044 	mov	a,#(__str_26 >> 8)
   13A6 C0 E0              4045 	push	acc
   13A8 74 80              4046 	mov	a,#0x80
   13AA C0 E0              4047 	push	acc
   13AC 12 50 CA           4048 	lcall	_printf
   13AF 15 81              4049 	dec	sp
   13B1 15 81              4050 	dec	sp
   13B3 15 81              4051 	dec	sp
   13B5 90 F8 74           4052 	mov	dptr,#_defaultWaitTime
   13B8 E0                 4053 	movx	a,@dptr
   13B9 FC                 4054 	mov	r4,a
   13BA A3                 4055 	inc	dptr
   13BB E0                 4056 	movx	a,@dptr
   13BC FD                 4057 	mov	r5,a
   13BD A3                 4058 	inc	dptr
   13BE E0                 4059 	movx	a,@dptr
   13BF A3                 4060 	inc	dptr
   13C0 E0                 4061 	movx	a,@dptr
   13C1 8C 82              4062 	mov	dpl,r4
   13C3 8D 83              4063 	mov	dph,r5
   13C5 12 4C EF           4064 	lcall	_delayMs
                    0D99   4065 	C$ydrip.c$416$2$12 ==.
                           4066 ;	apps/ydrip/ydrip.c:416: printf("file.writeline(\"end)\")\r\n")																				; delayMs(defaultWaitTime);
   13C8 74 54              4067 	mov	a,#__str_27
   13CA C0 E0              4068 	push	acc
   13CC 74 63              4069 	mov	a,#(__str_27 >> 8)
   13CE C0 E0              4070 	push	acc
   13D0 74 80              4071 	mov	a,#0x80
   13D2 C0 E0              4072 	push	acc
   13D4 12 50 CA           4073 	lcall	_printf
   13D7 15 81              4074 	dec	sp
   13D9 15 81              4075 	dec	sp
   13DB 15 81              4076 	dec	sp
   13DD 90 F8 74           4077 	mov	dptr,#_defaultWaitTime
   13E0 E0                 4078 	movx	a,@dptr
   13E1 FC                 4079 	mov	r4,a
   13E2 A3                 4080 	inc	dptr
   13E3 E0                 4081 	movx	a,@dptr
   13E4 FD                 4082 	mov	r5,a
   13E5 A3                 4083 	inc	dptr
   13E6 E0                 4084 	movx	a,@dptr
   13E7 A3                 4085 	inc	dptr
   13E8 E0                 4086 	movx	a,@dptr
   13E9 8C 82              4087 	mov	dpl,r4
   13EB 8D 83              4088 	mov	dph,r5
   13ED 12 4C EF           4089 	lcall	_delayMs
                    0DC1   4090 	C$ydrip.c$417$2$12 ==.
                           4091 ;	apps/ydrip/ydrip.c:417: printf("file.writeline([[connG:connect(80,'google.com')]])\r\n")													; delayMs(defaultWaitTime);	// trigger output of date
   13F0 74 6D              4092 	mov	a,#__str_28
   13F2 C0 E0              4093 	push	acc
   13F4 74 63              4094 	mov	a,#(__str_28 >> 8)
   13F6 C0 E0              4095 	push	acc
   13F8 74 80              4096 	mov	a,#0x80
   13FA C0 E0              4097 	push	acc
   13FC 12 50 CA           4098 	lcall	_printf
   13FF 15 81              4099 	dec	sp
   1401 15 81              4100 	dec	sp
   1403 15 81              4101 	dec	sp
   1405 90 F8 74           4102 	mov	dptr,#_defaultWaitTime
   1408 E0                 4103 	movx	a,@dptr
   1409 FC                 4104 	mov	r4,a
   140A A3                 4105 	inc	dptr
   140B E0                 4106 	movx	a,@dptr
   140C FD                 4107 	mov	r5,a
   140D A3                 4108 	inc	dptr
   140E E0                 4109 	movx	a,@dptr
   140F A3                 4110 	inc	dptr
   1410 E0                 4111 	movx	a,@dptr
   1411 8C 82              4112 	mov	dpl,r4
   1413 8D 83              4113 	mov	dph,r5
   1415 12 4C EF           4114 	lcall	_delayMs
                    0DE9   4115 	C$ydrip.c$418$2$12 ==.
                           4116 ;	apps/ydrip/ydrip.c:418: printf("file.close()\r\n");																							; delayMs(defaultWaitTime);
   1418 74 54              4117 	mov	a,#__str_11
   141A C0 E0              4118 	push	acc
   141C 74 5E              4119 	mov	a,#(__str_11 >> 8)
   141E C0 E0              4120 	push	acc
   1420 74 80              4121 	mov	a,#0x80
   1422 C0 E0              4122 	push	acc
   1424 12 50 CA           4123 	lcall	_printf
   1427 15 81              4124 	dec	sp
   1429 15 81              4125 	dec	sp
   142B 15 81              4126 	dec	sp
   142D 90 F8 74           4127 	mov	dptr,#_defaultWaitTime
   1430 E0                 4128 	movx	a,@dptr
   1431 FC                 4129 	mov	r4,a
   1432 A3                 4130 	inc	dptr
   1433 E0                 4131 	movx	a,@dptr
   1434 FD                 4132 	mov	r5,a
   1435 A3                 4133 	inc	dptr
   1436 E0                 4134 	movx	a,@dptr
   1437 A3                 4135 	inc	dptr
   1438 E0                 4136 	movx	a,@dptr
   1439 8C 82              4137 	mov	dpl,r4
   143B 8D 83              4138 	mov	dph,r5
   143D 12 4C EF           4139 	lcall	_delayMs
                    0E11   4140 	C$ydrip.c$420$2$12 ==.
                           4141 ;	apps/ydrip/ydrip.c:420: printf("print('connG ready\\r\\n')\r\n");																			; delayMs(defaultWaitTime);
   1440 74 A2              4142 	mov	a,#__str_29
   1442 C0 E0              4143 	push	acc
   1444 74 63              4144 	mov	a,#(__str_29 >> 8)
   1446 C0 E0              4145 	push	acc
   1448 74 80              4146 	mov	a,#0x80
   144A C0 E0              4147 	push	acc
   144C 12 50 CA           4148 	lcall	_printf
   144F 15 81              4149 	dec	sp
   1451 15 81              4150 	dec	sp
   1453 15 81              4151 	dec	sp
   1455 90 F8 74           4152 	mov	dptr,#_defaultWaitTime
   1458 E0                 4153 	movx	a,@dptr
   1459 FC                 4154 	mov	r4,a
   145A A3                 4155 	inc	dptr
   145B E0                 4156 	movx	a,@dptr
   145C FD                 4157 	mov	r5,a
   145D A3                 4158 	inc	dptr
   145E E0                 4159 	movx	a,@dptr
   145F A3                 4160 	inc	dptr
   1460 E0                 4161 	movx	a,@dptr
   1461 8C 82              4162 	mov	dpl,r4
   1463 8D 83              4163 	mov	dph,r5
   1465 12 4C EF           4164 	lcall	_delayMs
                    0E39   4165 	C$ydrip.c$423$2$12 ==.
                           4166 ;	apps/ydrip/ydrip.c:423: strcpy(c, (getESPString())); // Clear buffer
   1468 12 09 FE           4167 	lcall	_getESPString
   146B AE 82              4168 	mov	r6,dpl
   146D AF 83              4169 	mov	r7,dph
   146F 78 5E              4170 	mov	r0,#_strcpy_PARM_2
   1471 EE                 4171 	mov	a,r6
   1472 F2                 4172 	movx	@r0,a
   1473 08                 4173 	inc	r0
   1474 EF                 4174 	mov	a,r7
   1475 F2                 4175 	movx	@r0,a
   1476 08                 4176 	inc	r0
   1477 E4                 4177 	clr	a
   1478 F2                 4178 	movx	@r0,a
   1479 90 F1 B1           4179 	mov	dptr,#_enableESP_c_1_1
   147C 75 F0 00           4180 	mov	b,#0x00
   147F 12 31 E6           4181 	lcall	_strcpy
                    0E53   4182 	C$ydrip.c$424$2$12 ==.
                           4183 ;	apps/ydrip/ydrip.c:424: printf("dofile(\"init.lua\")\r\n");; delayMs(3000);
   1482 74 A7              4184 	mov	a,#__str_1
   1484 C0 E0              4185 	push	acc
   1486 74 5C              4186 	mov	a,#(__str_1 >> 8)
   1488 C0 E0              4187 	push	acc
   148A 74 80              4188 	mov	a,#0x80
   148C C0 E0              4189 	push	acc
   148E 12 50 CA           4190 	lcall	_printf
   1491 15 81              4191 	dec	sp
   1493 15 81              4192 	dec	sp
   1495 15 81              4193 	dec	sp
   1497 90 0B B8           4194 	mov	dptr,#0x0BB8
   149A 12 4C EF           4195 	lcall	_delayMs
   149D                    4196 00106$:
                    0E6E   4197 	C$ydrip.c$427$1$1 ==.
                    0E6E   4198 	XG$enableESP$0$0 ==.
   149D 22                 4199 	ret
                           4200 ;------------------------------------------------------------
                           4201 ;Allocation info for local variables in function 'getWifiStatus'
                           4202 ;------------------------------------------------------------
                           4203 ;i                         Allocated with name '_getWifiStatus_i_1_1'
                           4204 ;intStatus                 Allocated with name '_getWifiStatus_intStatus_1_1'
                           4205 ;c                         Allocated with name '_getWifiStatus_c_1_1'
                           4206 ;------------------------------------------------------------
                    0E6F   4207 	G$getWifiStatus$0$0 ==.
                    0E6F   4208 	C$ydrip.c$429$1$1 ==.
                           4209 ;	apps/ydrip/ydrip.c:429: XDATA int16 getWifiStatus() {						// Read responses from ESP2866 module to see if there is a Wifi Connection (status 5)
                           4210 ;	-----------------------------------------
                           4211 ;	 function getWifiStatus
                           4212 ;	-----------------------------------------
   149E                    4213 _getWifiStatus:
                    0E6F   4214 	C$ydrip.c$432$1$1 ==.
                           4215 ;	apps/ydrip/ydrip.c:432: XDATA char c[80] = {0};
   149E 90 F2 0E           4216 	mov	dptr,#_getWifiStatus_c_1_1
   14A1 E4                 4217 	clr	a
   14A2 F0                 4218 	movx	@dptr,a
   14A3 90 F2 0F           4219 	mov	dptr,#(_getWifiStatus_c_1_1 + 0x0001)
   14A6 F0                 4220 	movx	@dptr,a
   14A7 90 F2 10           4221 	mov	dptr,#(_getWifiStatus_c_1_1 + 0x0002)
   14AA F0                 4222 	movx	@dptr,a
   14AB 90 F2 11           4223 	mov	dptr,#(_getWifiStatus_c_1_1 + 0x0003)
   14AE F0                 4224 	movx	@dptr,a
   14AF 90 F2 12           4225 	mov	dptr,#(_getWifiStatus_c_1_1 + 0x0004)
   14B2 E4                 4226 	clr	a
   14B3 F0                 4227 	movx	@dptr,a
   14B4 90 F2 13           4228 	mov	dptr,#(_getWifiStatus_c_1_1 + 0x0005)
   14B7 F0                 4229 	movx	@dptr,a
   14B8 90 F2 14           4230 	mov	dptr,#(_getWifiStatus_c_1_1 + 0x0006)
   14BB F0                 4231 	movx	@dptr,a
   14BC 90 F2 15           4232 	mov	dptr,#(_getWifiStatus_c_1_1 + 0x0007)
   14BF F0                 4233 	movx	@dptr,a
   14C0 90 F2 16           4234 	mov	dptr,#(_getWifiStatus_c_1_1 + 0x0008)
   14C3 E4                 4235 	clr	a
   14C4 F0                 4236 	movx	@dptr,a
   14C5 90 F2 17           4237 	mov	dptr,#(_getWifiStatus_c_1_1 + 0x0009)
   14C8 F0                 4238 	movx	@dptr,a
   14C9 90 F2 18           4239 	mov	dptr,#(_getWifiStatus_c_1_1 + 0x000a)
   14CC F0                 4240 	movx	@dptr,a
   14CD 90 F2 19           4241 	mov	dptr,#(_getWifiStatus_c_1_1 + 0x000b)
   14D0 F0                 4242 	movx	@dptr,a
   14D1 90 F2 1A           4243 	mov	dptr,#(_getWifiStatus_c_1_1 + 0x000c)
   14D4 E4                 4244 	clr	a
   14D5 F0                 4245 	movx	@dptr,a
   14D6 90 F2 1B           4246 	mov	dptr,#(_getWifiStatus_c_1_1 + 0x000d)
   14D9 F0                 4247 	movx	@dptr,a
   14DA 90 F2 1C           4248 	mov	dptr,#(_getWifiStatus_c_1_1 + 0x000e)
   14DD F0                 4249 	movx	@dptr,a
   14DE 90 F2 1D           4250 	mov	dptr,#(_getWifiStatus_c_1_1 + 0x000f)
   14E1 F0                 4251 	movx	@dptr,a
   14E2 90 F2 1E           4252 	mov	dptr,#(_getWifiStatus_c_1_1 + 0x0010)
   14E5 E4                 4253 	clr	a
   14E6 F0                 4254 	movx	@dptr,a
   14E7 90 F2 1F           4255 	mov	dptr,#(_getWifiStatus_c_1_1 + 0x0011)
   14EA F0                 4256 	movx	@dptr,a
   14EB 90 F2 20           4257 	mov	dptr,#(_getWifiStatus_c_1_1 + 0x0012)
   14EE F0                 4258 	movx	@dptr,a
   14EF 90 F2 21           4259 	mov	dptr,#(_getWifiStatus_c_1_1 + 0x0013)
   14F2 F0                 4260 	movx	@dptr,a
   14F3 90 F2 22           4261 	mov	dptr,#(_getWifiStatus_c_1_1 + 0x0014)
   14F6 E4                 4262 	clr	a
   14F7 F0                 4263 	movx	@dptr,a
   14F8 90 F2 23           4264 	mov	dptr,#(_getWifiStatus_c_1_1 + 0x0015)
   14FB F0                 4265 	movx	@dptr,a
   14FC 90 F2 24           4266 	mov	dptr,#(_getWifiStatus_c_1_1 + 0x0016)
   14FF F0                 4267 	movx	@dptr,a
   1500 90 F2 25           4268 	mov	dptr,#(_getWifiStatus_c_1_1 + 0x0017)
   1503 F0                 4269 	movx	@dptr,a
   1504 90 F2 26           4270 	mov	dptr,#(_getWifiStatus_c_1_1 + 0x0018)
   1507 E4                 4271 	clr	a
   1508 F0                 4272 	movx	@dptr,a
   1509 90 F2 27           4273 	mov	dptr,#(_getWifiStatus_c_1_1 + 0x0019)
   150C F0                 4274 	movx	@dptr,a
   150D 90 F2 28           4275 	mov	dptr,#(_getWifiStatus_c_1_1 + 0x001a)
   1510 F0                 4276 	movx	@dptr,a
   1511 90 F2 29           4277 	mov	dptr,#(_getWifiStatus_c_1_1 + 0x001b)
   1514 F0                 4278 	movx	@dptr,a
   1515 90 F2 2A           4279 	mov	dptr,#(_getWifiStatus_c_1_1 + 0x001c)
   1518 E4                 4280 	clr	a
   1519 F0                 4281 	movx	@dptr,a
   151A 90 F2 2B           4282 	mov	dptr,#(_getWifiStatus_c_1_1 + 0x001d)
   151D F0                 4283 	movx	@dptr,a
   151E 90 F2 2C           4284 	mov	dptr,#(_getWifiStatus_c_1_1 + 0x001e)
   1521 F0                 4285 	movx	@dptr,a
   1522 90 F2 2D           4286 	mov	dptr,#(_getWifiStatus_c_1_1 + 0x001f)
   1525 F0                 4287 	movx	@dptr,a
   1526 90 F2 2E           4288 	mov	dptr,#(_getWifiStatus_c_1_1 + 0x0020)
   1529 E4                 4289 	clr	a
   152A F0                 4290 	movx	@dptr,a
   152B 90 F2 2F           4291 	mov	dptr,#(_getWifiStatus_c_1_1 + 0x0021)
   152E F0                 4292 	movx	@dptr,a
   152F 90 F2 30           4293 	mov	dptr,#(_getWifiStatus_c_1_1 + 0x0022)
   1532 F0                 4294 	movx	@dptr,a
   1533 90 F2 31           4295 	mov	dptr,#(_getWifiStatus_c_1_1 + 0x0023)
   1536 F0                 4296 	movx	@dptr,a
   1537 90 F2 32           4297 	mov	dptr,#(_getWifiStatus_c_1_1 + 0x0024)
   153A E4                 4298 	clr	a
   153B F0                 4299 	movx	@dptr,a
   153C 90 F2 33           4300 	mov	dptr,#(_getWifiStatus_c_1_1 + 0x0025)
   153F F0                 4301 	movx	@dptr,a
   1540 90 F2 34           4302 	mov	dptr,#(_getWifiStatus_c_1_1 + 0x0026)
   1543 F0                 4303 	movx	@dptr,a
   1544 90 F2 35           4304 	mov	dptr,#(_getWifiStatus_c_1_1 + 0x0027)
   1547 F0                 4305 	movx	@dptr,a
   1548 90 F2 36           4306 	mov	dptr,#(_getWifiStatus_c_1_1 + 0x0028)
   154B E4                 4307 	clr	a
   154C F0                 4308 	movx	@dptr,a
   154D 90 F2 37           4309 	mov	dptr,#(_getWifiStatus_c_1_1 + 0x0029)
   1550 F0                 4310 	movx	@dptr,a
   1551 90 F2 38           4311 	mov	dptr,#(_getWifiStatus_c_1_1 + 0x002a)
   1554 F0                 4312 	movx	@dptr,a
   1555 90 F2 39           4313 	mov	dptr,#(_getWifiStatus_c_1_1 + 0x002b)
   1558 F0                 4314 	movx	@dptr,a
   1559 90 F2 3A           4315 	mov	dptr,#(_getWifiStatus_c_1_1 + 0x002c)
   155C E4                 4316 	clr	a
   155D F0                 4317 	movx	@dptr,a
   155E 90 F2 3B           4318 	mov	dptr,#(_getWifiStatus_c_1_1 + 0x002d)
   1561 F0                 4319 	movx	@dptr,a
   1562 90 F2 3C           4320 	mov	dptr,#(_getWifiStatus_c_1_1 + 0x002e)
   1565 F0                 4321 	movx	@dptr,a
   1566 90 F2 3D           4322 	mov	dptr,#(_getWifiStatus_c_1_1 + 0x002f)
   1569 F0                 4323 	movx	@dptr,a
   156A 90 F2 3E           4324 	mov	dptr,#(_getWifiStatus_c_1_1 + 0x0030)
   156D E4                 4325 	clr	a
   156E F0                 4326 	movx	@dptr,a
   156F 90 F2 3F           4327 	mov	dptr,#(_getWifiStatus_c_1_1 + 0x0031)
   1572 F0                 4328 	movx	@dptr,a
   1573 90 F2 40           4329 	mov	dptr,#(_getWifiStatus_c_1_1 + 0x0032)
   1576 F0                 4330 	movx	@dptr,a
   1577 90 F2 41           4331 	mov	dptr,#(_getWifiStatus_c_1_1 + 0x0033)
   157A F0                 4332 	movx	@dptr,a
   157B 90 F2 42           4333 	mov	dptr,#(_getWifiStatus_c_1_1 + 0x0034)
   157E E4                 4334 	clr	a
   157F F0                 4335 	movx	@dptr,a
   1580 90 F2 43           4336 	mov	dptr,#(_getWifiStatus_c_1_1 + 0x0035)
   1583 F0                 4337 	movx	@dptr,a
   1584 90 F2 44           4338 	mov	dptr,#(_getWifiStatus_c_1_1 + 0x0036)
   1587 F0                 4339 	movx	@dptr,a
   1588 90 F2 45           4340 	mov	dptr,#(_getWifiStatus_c_1_1 + 0x0037)
   158B F0                 4341 	movx	@dptr,a
   158C 90 F2 46           4342 	mov	dptr,#(_getWifiStatus_c_1_1 + 0x0038)
   158F E4                 4343 	clr	a
   1590 F0                 4344 	movx	@dptr,a
   1591 90 F2 47           4345 	mov	dptr,#(_getWifiStatus_c_1_1 + 0x0039)
   1594 F0                 4346 	movx	@dptr,a
   1595 90 F2 48           4347 	mov	dptr,#(_getWifiStatus_c_1_1 + 0x003a)
   1598 F0                 4348 	movx	@dptr,a
   1599 90 F2 49           4349 	mov	dptr,#(_getWifiStatus_c_1_1 + 0x003b)
   159C F0                 4350 	movx	@dptr,a
   159D 90 F2 4A           4351 	mov	dptr,#(_getWifiStatus_c_1_1 + 0x003c)
   15A0 E4                 4352 	clr	a
   15A1 F0                 4353 	movx	@dptr,a
   15A2 90 F2 4B           4354 	mov	dptr,#(_getWifiStatus_c_1_1 + 0x003d)
   15A5 F0                 4355 	movx	@dptr,a
   15A6 90 F2 4C           4356 	mov	dptr,#(_getWifiStatus_c_1_1 + 0x003e)
   15A9 F0                 4357 	movx	@dptr,a
   15AA 90 F2 4D           4358 	mov	dptr,#(_getWifiStatus_c_1_1 + 0x003f)
   15AD F0                 4359 	movx	@dptr,a
   15AE 90 F2 4E           4360 	mov	dptr,#(_getWifiStatus_c_1_1 + 0x0040)
   15B1 E4                 4361 	clr	a
   15B2 F0                 4362 	movx	@dptr,a
   15B3 90 F2 4F           4363 	mov	dptr,#(_getWifiStatus_c_1_1 + 0x0041)
   15B6 F0                 4364 	movx	@dptr,a
   15B7 90 F2 50           4365 	mov	dptr,#(_getWifiStatus_c_1_1 + 0x0042)
   15BA F0                 4366 	movx	@dptr,a
   15BB 90 F2 51           4367 	mov	dptr,#(_getWifiStatus_c_1_1 + 0x0043)
   15BE F0                 4368 	movx	@dptr,a
   15BF 90 F2 52           4369 	mov	dptr,#(_getWifiStatus_c_1_1 + 0x0044)
   15C2 E4                 4370 	clr	a
   15C3 F0                 4371 	movx	@dptr,a
   15C4 90 F2 53           4372 	mov	dptr,#(_getWifiStatus_c_1_1 + 0x0045)
   15C7 F0                 4373 	movx	@dptr,a
   15C8 90 F2 54           4374 	mov	dptr,#(_getWifiStatus_c_1_1 + 0x0046)
   15CB F0                 4375 	movx	@dptr,a
   15CC 90 F2 55           4376 	mov	dptr,#(_getWifiStatus_c_1_1 + 0x0047)
   15CF F0                 4377 	movx	@dptr,a
   15D0 90 F2 56           4378 	mov	dptr,#(_getWifiStatus_c_1_1 + 0x0048)
   15D3 E4                 4379 	clr	a
   15D4 F0                 4380 	movx	@dptr,a
   15D5 90 F2 57           4381 	mov	dptr,#(_getWifiStatus_c_1_1 + 0x0049)
   15D8 F0                 4382 	movx	@dptr,a
   15D9 90 F2 58           4383 	mov	dptr,#(_getWifiStatus_c_1_1 + 0x004a)
   15DC F0                 4384 	movx	@dptr,a
   15DD 90 F2 59           4385 	mov	dptr,#(_getWifiStatus_c_1_1 + 0x004b)
   15E0 F0                 4386 	movx	@dptr,a
   15E1 90 F2 5A           4387 	mov	dptr,#(_getWifiStatus_c_1_1 + 0x004c)
   15E4 E4                 4388 	clr	a
   15E5 F0                 4389 	movx	@dptr,a
   15E6 90 F2 5B           4390 	mov	dptr,#(_getWifiStatus_c_1_1 + 0x004d)
   15E9 F0                 4391 	movx	@dptr,a
   15EA 90 F2 5C           4392 	mov	dptr,#(_getWifiStatus_c_1_1 + 0x004e)
   15ED F0                 4393 	movx	@dptr,a
   15EE 90 F2 5D           4394 	mov	dptr,#(_getWifiStatus_c_1_1 + 0x004f)
   15F1 F0                 4395 	movx	@dptr,a
                    0FC3   4396 	C$ydrip.c$434$1$1 ==.
                           4397 ;	apps/ydrip/ydrip.c:434: c[0]=0;											// And mark string as empty
   15F2 90 F2 0E           4398 	mov	dptr,#_getWifiStatus_c_1_1
   15F5 E4                 4399 	clr	a
   15F6 F0                 4400 	movx	@dptr,a
                    0FC8   4401 	C$ydrip.c$435$1$1 ==.
                           4402 ;	apps/ydrip/ydrip.c:435: clearRxErrors();
   15F7 12 09 76           4403 	lcall	_clearRxErrors
                    0FCB   4404 	C$ydrip.c$437$1$1 ==.
                           4405 ;	apps/ydrip/ydrip.c:437: boardService();
   15FA 12 40 C2           4406 	lcall	_boardService
                    0FCE   4407 	C$ydrip.c$438$1$1 ==.
                           4408 ;	apps/ydrip/ydrip.c:438: uartEnable();
   15FD 12 06 5C           4409 	lcall	_uartEnable
                    0FD1   4410 	C$ydrip.c$439$1$1 ==.
                           4411 ;	apps/ydrip/ydrip.c:439: strcpy(c, (getESPString()));					// Clear input buffer
   1600 12 09 FE           4412 	lcall	_getESPString
   1603 AE 82              4413 	mov	r6,dpl
   1605 AF 83              4414 	mov	r7,dph
   1607 78 5E              4415 	mov	r0,#_strcpy_PARM_2
   1609 EE                 4416 	mov	a,r6
   160A F2                 4417 	movx	@r0,a
   160B 08                 4418 	inc	r0
   160C EF                 4419 	mov	a,r7
   160D F2                 4420 	movx	@r0,a
   160E 08                 4421 	inc	r0
   160F E4                 4422 	clr	a
   1610 F2                 4423 	movx	@r0,a
   1611 90 F2 0E           4424 	mov	dptr,#_getWifiStatus_c_1_1
   1614 75 F0 00           4425 	mov	b,#0x00
   1617 12 31 E6           4426 	lcall	_strcpy
                    0FEB   4427 	C$ydrip.c$441$1$1 ==.
                           4428 ;	apps/ydrip/ydrip.c:441: printf("print(wifi.sta.status())\r\n");	delayMs(defaultWaitTime);
   161A 74 BD              4429 	mov	a,#__str_30
   161C C0 E0              4430 	push	acc
   161E 74 63              4431 	mov	a,#(__str_30 >> 8)
   1620 C0 E0              4432 	push	acc
   1622 74 80              4433 	mov	a,#0x80
   1624 C0 E0              4434 	push	acc
   1626 12 50 CA           4435 	lcall	_printf
   1629 15 81              4436 	dec	sp
   162B 15 81              4437 	dec	sp
   162D 15 81              4438 	dec	sp
   162F 90 F8 74           4439 	mov	dptr,#_defaultWaitTime
   1632 E0                 4440 	movx	a,@dptr
   1633 FC                 4441 	mov	r4,a
   1634 A3                 4442 	inc	dptr
   1635 E0                 4443 	movx	a,@dptr
   1636 FD                 4444 	mov	r5,a
   1637 A3                 4445 	inc	dptr
   1638 E0                 4446 	movx	a,@dptr
   1639 A3                 4447 	inc	dptr
   163A E0                 4448 	movx	a,@dptr
   163B 8C 82              4449 	mov	dpl,r4
   163D 8D 83              4450 	mov	dph,r5
   163F 12 4C EF           4451 	lcall	_delayMs
                    1013   4452 	C$ydrip.c$443$2$2 ==.
                           4453 ;	apps/ydrip/ydrip.c:443: while (uart1RxAvailable() > 0) {
   1642                    4454 00101$:
   1642 12 2E 0F           4455 	lcall	_uart1RxAvailable
   1645 E5 82              4456 	mov	a,dpl
   1647 60 1C              4457 	jz	00103$
                    101A   4458 	C$ydrip.c$444$2$2 ==.
                           4459 ;	apps/ydrip/ydrip.c:444: strcpy(c, (getESPString()));
   1649 12 09 FE           4460 	lcall	_getESPString
   164C AE 82              4461 	mov	r6,dpl
   164E AF 83              4462 	mov	r7,dph
   1650 78 5E              4463 	mov	r0,#_strcpy_PARM_2
   1652 EE                 4464 	mov	a,r6
   1653 F2                 4465 	movx	@r0,a
   1654 08                 4466 	inc	r0
   1655 EF                 4467 	mov	a,r7
   1656 F2                 4468 	movx	@r0,a
   1657 08                 4469 	inc	r0
   1658 E4                 4470 	clr	a
   1659 F2                 4471 	movx	@r0,a
   165A 90 F2 0E           4472 	mov	dptr,#_getWifiStatus_c_1_1
   165D 75 F0 00           4473 	mov	b,#0x00
   1660 12 31 E6           4474 	lcall	_strcpy
   1663 80 DD              4475 	sjmp	00101$
   1665                    4476 00103$:
                    1036   4477 	C$ydrip.c$447$1$1 ==.
                           4478 ;	apps/ydrip/ydrip.c:447: i = strlen(c);
   1665 90 F2 0E           4479 	mov	dptr,#_getWifiStatus_c_1_1
   1668 75 F0 00           4480 	mov	b,#0x00
   166B 12 58 09           4481 	lcall	_strlen
   166E AE 82              4482 	mov	r6,dpl
   1670 AF 83              4483 	mov	r7,dph
   1672 90 F2 0A           4484 	mov	dptr,#_getWifiStatus_i_1_1
   1675 EE                 4485 	mov	a,r6
   1676 F0                 4486 	movx	@dptr,a
   1677 A3                 4487 	inc	dptr
   1678 EF                 4488 	mov	a,r7
   1679 F0                 4489 	movx	@dptr,a
                    104B   4490 	C$ydrip.c$448$1$1 ==.
                           4491 ;	apps/ydrip/ydrip.c:448: if  (i>5) {
   167A C3                 4492 	clr	c
   167B 74 05              4493 	mov	a,#0x05
   167D 9E                 4494 	subb	a,r6
   167E E4                 4495 	clr	a
   167F 64 80              4496 	xrl	a,#0x80
   1681 8F F0              4497 	mov	b,r7
   1683 63 F0 80           4498 	xrl	b,#0x80
   1686 95 F0              4499 	subb	a,b
   1688 50 24              4500 	jnc	00105$
                    105B   4501 	C$ydrip.c$449$2$3 ==.
                           4502 ;	apps/ydrip/ydrip.c:449: intStatus=(((c[i-5])-'0'));					// Convert character to integer.  1 connecting, 5 connected, etc.
   168A EE                 4503 	mov	a,r6
   168B 24 FB              4504 	add	a,#0xFB
   168D 24 0E              4505 	add	a,#_getWifiStatus_c_1_1
   168F F5 82              4506 	mov	dpl,a
   1691 E4                 4507 	clr	a
   1692 34 F2              4508 	addc	a,#(_getWifiStatus_c_1_1 >> 8)
   1694 F5 83              4509 	mov	dph,a
   1696 E0                 4510 	movx	a,@dptr
   1697 FF                 4511 	mov	r7,a
   1698 33                 4512 	rlc	a
   1699 95 E0              4513 	subb	a,acc
   169B FE                 4514 	mov	r6,a
   169C EF                 4515 	mov	a,r7
   169D 24 D0              4516 	add	a,#0xD0
   169F FF                 4517 	mov	r7,a
   16A0 EE                 4518 	mov	a,r6
   16A1 34 FF              4519 	addc	a,#0xFF
   16A3 FE                 4520 	mov	r6,a
   16A4 90 F2 0C           4521 	mov	dptr,#_getWifiStatus_intStatus_1_1
   16A7 EF                 4522 	mov	a,r7
   16A8 F0                 4523 	movx	@dptr,a
   16A9 A3                 4524 	inc	dptr
   16AA EE                 4525 	mov	a,r6
   16AB F0                 4526 	movx	@dptr,a
   16AC 80 07              4527 	sjmp	00106$
   16AE                    4528 00105$:
                    107F   4529 	C$ydrip.c$451$2$4 ==.
                           4530 ;	apps/ydrip/ydrip.c:451: intStatus=0;
   16AE 90 F2 0C           4531 	mov	dptr,#_getWifiStatus_intStatus_1_1
   16B1 E4                 4532 	clr	a
   16B2 F0                 4533 	movx	@dptr,a
   16B3 A3                 4534 	inc	dptr
   16B4 F0                 4535 	movx	@dptr,a
   16B5                    4536 00106$:
                    1086   4537 	C$ydrip.c$454$1$1 ==.
                           4538 ;	apps/ydrip/ydrip.c:454: return intStatus;
   16B5 90 F2 0C           4539 	mov	dptr,#_getWifiStatus_intStatus_1_1
   16B8 E0                 4540 	movx	a,@dptr
   16B9 FE                 4541 	mov	r6,a
   16BA A3                 4542 	inc	dptr
   16BB E0                 4543 	movx	a,@dptr
                    108D   4544 	C$ydrip.c$455$1$1 ==.
                    108D   4545 	XG$getWifiStatus$0$0 ==.
   16BC 8E 82              4546 	mov	dpl,r6
   16BE F5 83              4547 	mov	dph,a
   16C0 22                 4548 	ret
                           4549 ;------------------------------------------------------------
                           4550 ;Allocation info for local variables in function 'wifiFlash'
                           4551 ;------------------------------------------------------------
                           4552 ;i                         Allocated with name '_wifiFlash_i_1_1'
                           4553 ;intWifiStatus             Allocated with name '_wifiFlash_intWifiStatus_1_1'
                           4554 ;------------------------------------------------------------
                    1092   4555 	G$wifiFlash$0$0 ==.
                    1092   4556 	C$ydrip.c$457$1$1 ==.
                           4557 ;	apps/ydrip/ydrip.c:457: void wifiFlash() {	
                           4558 ;	-----------------------------------------
                           4559 ;	 function wifiFlash
                           4560 ;	-----------------------------------------
   16C1                    4561 _wifiFlash:
                    1092   4562 	C$ydrip.c$459$1$1 ==.
                           4563 ;	apps/ydrip/ydrip.c:459: XDATA int16 intWifiStatus = 1;
   16C1 90 F2 5E           4564 	mov	dptr,#_wifiFlash_intWifiStatus_1_1
   16C4 74 01              4565 	mov	a,#0x01
   16C6 F0                 4566 	movx	@dptr,a
   16C7 A3                 4567 	inc	dptr
   16C8 E4                 4568 	clr	a
   16C9 F0                 4569 	movx	@dptr,a
   16CA 7F 00              4570 	mov	r7,#0x00
   16CC                    4571 00102$:
                    109D   4572 	C$ydrip.c$460$1$1 ==.
                           4573 ;	apps/ydrip/ydrip.c:460: for(; i < 16 && intWifiStatus == 1; i++) {		// Loop unti status is not "Connecting" or after about 8 seconds
   16CC BF 10 00           4574 	cjne	r7,#0x10,00112$
   16CF                    4575 00112$:
   16CF 50 5B              4576 	jnc	00106$
   16D1 90 F2 5E           4577 	mov	dptr,#_wifiFlash_intWifiStatus_1_1
   16D4 E0                 4578 	movx	a,@dptr
   16D5 FD                 4579 	mov	r5,a
   16D6 A3                 4580 	inc	dptr
   16D7 E0                 4581 	movx	a,@dptr
   16D8 FE                 4582 	mov	r6,a
   16D9 BD 01 50           4583 	cjne	r5,#0x01,00106$
   16DC BE 00 4D           4584 	cjne	r6,#0x00,00106$
                    10B0   4585 	C$ydrip.c$461$2$2 ==.
                           4586 ;	apps/ydrip/ydrip.c:461: printf("gpio.write(4, gpio.HIGH)\r\n");		// Switch off Blue LED (Flash)
   16DF C0 07              4587 	push	ar7
   16E1 74 D8              4588 	mov	a,#__str_31
   16E3 C0 E0              4589 	push	acc
   16E5 74 63              4590 	mov	a,#(__str_31 >> 8)
   16E7 C0 E0              4591 	push	acc
   16E9 74 80              4592 	mov	a,#0x80
   16EB C0 E0              4593 	push	acc
   16ED 12 50 CA           4594 	lcall	_printf
   16F0 15 81              4595 	dec	sp
   16F2 15 81              4596 	dec	sp
   16F4 15 81              4597 	dec	sp
                    10C7   4598 	C$ydrip.c$462$2$2 ==.
                           4599 ;	apps/ydrip/ydrip.c:462: delayMs(250);
   16F6 90 00 FA           4600 	mov	dptr,#0x00FA
   16F9 12 4C EF           4601 	lcall	_delayMs
                    10CD   4602 	C$ydrip.c$463$2$2 ==.
                           4603 ;	apps/ydrip/ydrip.c:463: printf("gpio.write(4, gpio.LOW)\r\n");		// Switch on Blue LED (Flash)
   16FC 74 F3              4604 	mov	a,#__str_32
   16FE C0 E0              4605 	push	acc
   1700 74 63              4606 	mov	a,#(__str_32 >> 8)
   1702 C0 E0              4607 	push	acc
   1704 74 80              4608 	mov	a,#0x80
   1706 C0 E0              4609 	push	acc
   1708 12 50 CA           4610 	lcall	_printf
   170B 15 81              4611 	dec	sp
   170D 15 81              4612 	dec	sp
   170F 15 81              4613 	dec	sp
                    10E2   4614 	C$ydrip.c$464$2$2 ==.
                           4615 ;	apps/ydrip/ydrip.c:464: delayMs(100);
   1711 90 00 64           4616 	mov	dptr,#0x0064
   1714 12 4C EF           4617 	lcall	_delayMs
                    10E8   4618 	C$ydrip.c$465$2$2 ==.
                           4619 ;	apps/ydrip/ydrip.c:465: intWifiStatus = getWifiStatus();
   1717 12 14 9E           4620 	lcall	_getWifiStatus
   171A E5 82              4621 	mov	a,dpl
   171C 85 83 F0           4622 	mov	b,dph
   171F D0 07              4623 	pop	ar7
   1721 90 F2 5E           4624 	mov	dptr,#_wifiFlash_intWifiStatus_1_1
   1724 F0                 4625 	movx	@dptr,a
   1725 A3                 4626 	inc	dptr
   1726 E5 F0              4627 	mov	a,b
   1728 F0                 4628 	movx	@dptr,a
                    10FA   4629 	C$ydrip.c$460$1$1 ==.
                           4630 ;	apps/ydrip/ydrip.c:460: for(; i < 16 && intWifiStatus == 1; i++) {		// Loop unti status is not "Connecting" or after about 8 seconds
   1729 0F                 4631 	inc	r7
   172A 80 A0              4632 	sjmp	00102$
   172C                    4633 00106$:
                    10FD   4634 	C$ydrip.c$467$1$1 ==.
                    10FD   4635 	XG$wifiFlash$0$0 ==.
   172C 22                 4636 	ret
                           4637 ;------------------------------------------------------------
                           4638 ;Allocation info for local variables in function 'wifiConnect'
                           4639 ;------------------------------------------------------------
                           4640 ;atString                  Allocated with name '_wifiConnect_atString_1_1'
                           4641 ;intWifiStatus             Allocated with name '_wifiConnect_intWifiStatus_1_1'
                           4642 ;------------------------------------------------------------
                    10FE   4643 	G$wifiConnect$0$0 ==.
                    10FE   4644 	C$ydrip.c$469$1$1 ==.
                           4645 ;	apps/ydrip/ydrip.c:469: BIT wifiConnect() {
                           4646 ;	-----------------------------------------
                           4647 ;	 function wifiConnect
                           4648 ;	-----------------------------------------
   172D                    4649 _wifiConnect:
                    10FE   4650 	C$ydrip.c$473$1$1 ==.
                           4651 ;	apps/ydrip/ydrip.c:473: uartEnable();									// Enable the serial connection
   172D 12 06 5C           4652 	lcall	_uartEnable
                    1101   4653 	C$ydrip.c$474$1$1 ==.
                           4654 ;	apps/ydrip/ydrip.c:474: delayMs(100);									// Wait for it to open
   1730 90 00 64           4655 	mov	dptr,#0x0064
   1733 12 4C EF           4656 	lcall	_delayMs
                    1107   4657 	C$ydrip.c$476$1$1 ==.
                           4658 ;	apps/ydrip/ydrip.c:476: printf("gpio.write(4, gpio.LOW)\r\n");	delayMs(defaultWaitTime);	// Switch on Blue LED
   1736 74 F3              4659 	mov	a,#__str_32
   1738 C0 E0              4660 	push	acc
   173A 74 63              4661 	mov	a,#(__str_32 >> 8)
   173C C0 E0              4662 	push	acc
   173E 74 80              4663 	mov	a,#0x80
   1740 C0 E0              4664 	push	acc
   1742 12 50 CA           4665 	lcall	_printf
   1745 15 81              4666 	dec	sp
   1747 15 81              4667 	dec	sp
   1749 15 81              4668 	dec	sp
   174B 90 F8 74           4669 	mov	dptr,#_defaultWaitTime
   174E E0                 4670 	movx	a,@dptr
   174F FC                 4671 	mov	r4,a
   1750 A3                 4672 	inc	dptr
   1751 E0                 4673 	movx	a,@dptr
   1752 FD                 4674 	mov	r5,a
   1753 A3                 4675 	inc	dptr
   1754 E0                 4676 	movx	a,@dptr
   1755 A3                 4677 	inc	dptr
   1756 E0                 4678 	movx	a,@dptr
   1757 8C 82              4679 	mov	dpl,r4
   1759 8D 83              4680 	mov	dph,r5
   175B 12 4C EF           4681 	lcall	_delayMs
                    112F   4682 	C$ydrip.c$478$1$1 ==.
                           4683 ;	apps/ydrip/ydrip.c:478: printf("wifi.sta.connect()\r\n");	delayMs(defaultWaitTime);
   175E 74 0D              4684 	mov	a,#__str_33
   1760 C0 E0              4685 	push	acc
   1762 74 64              4686 	mov	a,#(__str_33 >> 8)
   1764 C0 E0              4687 	push	acc
   1766 74 80              4688 	mov	a,#0x80
   1768 C0 E0              4689 	push	acc
   176A 12 50 CA           4690 	lcall	_printf
   176D 15 81              4691 	dec	sp
   176F 15 81              4692 	dec	sp
   1771 15 81              4693 	dec	sp
   1773 90 F8 74           4694 	mov	dptr,#_defaultWaitTime
   1776 E0                 4695 	movx	a,@dptr
   1777 FC                 4696 	mov	r4,a
   1778 A3                 4697 	inc	dptr
   1779 E0                 4698 	movx	a,@dptr
   177A FD                 4699 	mov	r5,a
   177B A3                 4700 	inc	dptr
   177C E0                 4701 	movx	a,@dptr
   177D A3                 4702 	inc	dptr
   177E E0                 4703 	movx	a,@dptr
   177F 8C 82              4704 	mov	dpl,r4
   1781 8D 83              4705 	mov	dph,r5
   1783 12 4C EF           4706 	lcall	_delayMs
                    1157   4707 	C$ydrip.c$479$1$1 ==.
                           4708 ;	apps/ydrip/ydrip.c:479: wifiFlash();									// Flash the blue LED until the connection status changes
   1786 12 16 C1           4709 	lcall	_wifiFlash
                    115A   4710 	C$ydrip.c$481$1$1 ==.
                           4711 ;	apps/ydrip/ydrip.c:481: intWifiStatus = getWifiStatus();
   1789 12 14 9E           4712 	lcall	_getWifiStatus
   178C AE 82              4713 	mov	r6,dpl
   178E AF 83              4714 	mov	r7,dph
   1790 90 F2 88           4715 	mov	dptr,#_wifiConnect_intWifiStatus_1_1
   1793 EE                 4716 	mov	a,r6
   1794 F0                 4717 	movx	@dptr,a
   1795 A3                 4718 	inc	dptr
   1796 EF                 4719 	mov	a,r7
   1797 F0                 4720 	movx	@dptr,a
                    1169   4721 	C$ydrip.c$487$1$1 ==.
                           4722 ;	apps/ydrip/ydrip.c:487: if (intWifiStatus != 5) {
   1798 BE 05 05           4723 	cjne	r6,#0x05,00122$
   179B BF 00 02           4724 	cjne	r7,#0x00,00122$
   179E 80 50              4725 	sjmp	00102$
   17A0                    4726 00122$:
                    1171   4727 	C$ydrip.c$488$2$2 ==.
                           4728 ;	apps/ydrip/ydrip.c:488: printf("gpio.write(4, gpio.HIGH)\r\n");								// Switch off Blue LED (to make it flash)
   17A0 74 D8              4729 	mov	a,#__str_31
   17A2 C0 E0              4730 	push	acc
   17A4 74 63              4731 	mov	a,#(__str_31 >> 8)
   17A6 C0 E0              4732 	push	acc
   17A8 74 80              4733 	mov	a,#0x80
   17AA C0 E0              4734 	push	acc
   17AC 12 50 CA           4735 	lcall	_printf
   17AF 15 81              4736 	dec	sp
   17B1 15 81              4737 	dec	sp
   17B3 15 81              4738 	dec	sp
                    1186   4739 	C$ydrip.c$489$2$2 ==.
                           4740 ;	apps/ydrip/ydrip.c:489: delayMs(defaultWaitTime);
   17B5 90 F8 74           4741 	mov	dptr,#_defaultWaitTime
   17B8 E0                 4742 	movx	a,@dptr
   17B9 FC                 4743 	mov	r4,a
   17BA A3                 4744 	inc	dptr
   17BB E0                 4745 	movx	a,@dptr
   17BC FD                 4746 	mov	r5,a
   17BD A3                 4747 	inc	dptr
   17BE E0                 4748 	movx	a,@dptr
   17BF A3                 4749 	inc	dptr
   17C0 E0                 4750 	movx	a,@dptr
   17C1 8C 82              4751 	mov	dpl,r4
   17C3 8D 83              4752 	mov	dph,r5
   17C5 12 4C EF           4753 	lcall	_delayMs
                    1199   4754 	C$ydrip.c$490$2$2 ==.
                           4755 ;	apps/ydrip/ydrip.c:490: printf("wifi.sta.config(\"HomeWifiName\",\"HomeWifiKey\")  wifi.sta.connect()\r\n");	// Connect to AP1
   17C8 74 22              4756 	mov	a,#__str_34
   17CA C0 E0              4757 	push	acc
   17CC 74 64              4758 	mov	a,#(__str_34 >> 8)
   17CE C0 E0              4759 	push	acc
   17D0 74 80              4760 	mov	a,#0x80
   17D2 C0 E0              4761 	push	acc
   17D4 12 50 CA           4762 	lcall	_printf
   17D7 15 81              4763 	dec	sp
   17D9 15 81              4764 	dec	sp
   17DB 15 81              4765 	dec	sp
                    11AE   4766 	C$ydrip.c$491$2$2 ==.
                           4767 ;	apps/ydrip/ydrip.c:491: wifiFlash();
   17DD 12 16 C1           4768 	lcall	_wifiFlash
                    11B1   4769 	C$ydrip.c$492$2$2 ==.
                           4770 ;	apps/ydrip/ydrip.c:492: intWifiStatus = getWifiStatus();
   17E0 12 14 9E           4771 	lcall	_getWifiStatus
   17E3 E5 82              4772 	mov	a,dpl
   17E5 85 83 F0           4773 	mov	b,dph
   17E8 90 F2 88           4774 	mov	dptr,#_wifiConnect_intWifiStatus_1_1
   17EB F0                 4775 	movx	@dptr,a
   17EC A3                 4776 	inc	dptr
   17ED E5 F0              4777 	mov	a,b
   17EF F0                 4778 	movx	@dptr,a
   17F0                    4779 00102$:
                    11C1   4780 	C$ydrip.c$496$1$1 ==.
                           4781 ;	apps/ydrip/ydrip.c:496: if (intWifiStatus != 5) {
   17F0 90 F2 88           4782 	mov	dptr,#_wifiConnect_intWifiStatus_1_1
   17F3 E0                 4783 	movx	a,@dptr
   17F4 FE                 4784 	mov	r6,a
   17F5 A3                 4785 	inc	dptr
   17F6 E0                 4786 	movx	a,@dptr
   17F7 FF                 4787 	mov	r7,a
   17F8 BE 05 05           4788 	cjne	r6,#0x05,00123$
   17FB BF 00 02           4789 	cjne	r7,#0x00,00123$
   17FE 80 53              4790 	sjmp	00104$
   1800                    4791 00123$:
                    11D1   4792 	C$ydrip.c$497$2$3 ==.
                           4793 ;	apps/ydrip/ydrip.c:497: printf("gpio.write(4, gpio.LOW)\r\n");								// Switch on Blue LED
   1800 74 F3              4794 	mov	a,#__str_32
   1802 C0 E0              4795 	push	acc
   1804 74 63              4796 	mov	a,#(__str_32 >> 8)
   1806 C0 E0              4797 	push	acc
   1808 74 80              4798 	mov	a,#0x80
   180A C0 E0              4799 	push	acc
   180C 12 50 CA           4800 	lcall	_printf
   180F 15 81              4801 	dec	sp
   1811 15 81              4802 	dec	sp
   1813 15 81              4803 	dec	sp
                    11E6   4804 	C$ydrip.c$498$2$3 ==.
                           4805 ;	apps/ydrip/ydrip.c:498: delayMs(defaultWaitTime);
   1815 90 F8 74           4806 	mov	dptr,#_defaultWaitTime
   1818 E0                 4807 	movx	a,@dptr
   1819 FC                 4808 	mov	r4,a
   181A A3                 4809 	inc	dptr
   181B E0                 4810 	movx	a,@dptr
   181C FD                 4811 	mov	r5,a
   181D A3                 4812 	inc	dptr
   181E E0                 4813 	movx	a,@dptr
   181F A3                 4814 	inc	dptr
   1820 E0                 4815 	movx	a,@dptr
   1821 8C 82              4816 	mov	dpl,r4
   1823 8D 83              4817 	mov	dph,r5
   1825 12 4C EF           4818 	lcall	_delayMs
                    11F9   4819 	C$ydrip.c$499$2$3 ==.
                           4820 ;	apps/ydrip/ydrip.c:499: printf("wifi.sta.config(\"SchoolWifiDdownstairs\",\"SchoolPassword\")  wifi.sta.connect()\r\n");	// Connect to AP1
   1828 74 66              4821 	mov	a,#__str_35
   182A C0 E0              4822 	push	acc
   182C 74 64              4823 	mov	a,#(__str_35 >> 8)
   182E C0 E0              4824 	push	acc
   1830 74 80              4825 	mov	a,#0x80
   1832 C0 E0              4826 	push	acc
   1834 12 50 CA           4827 	lcall	_printf
   1837 15 81              4828 	dec	sp
   1839 15 81              4829 	dec	sp
   183B 15 81              4830 	dec	sp
                    120E   4831 	C$ydrip.c$500$2$3 ==.
                           4832 ;	apps/ydrip/ydrip.c:500: wifiFlash();
   183D 12 16 C1           4833 	lcall	_wifiFlash
                    1211   4834 	C$ydrip.c$501$2$3 ==.
                           4835 ;	apps/ydrip/ydrip.c:501: wifiFlash();							// Add in an extra round of flashing if this network can take longer to connect														// wait longer as slower netword
   1840 12 16 C1           4836 	lcall	_wifiFlash
                    1214   4837 	C$ydrip.c$502$2$3 ==.
                           4838 ;	apps/ydrip/ydrip.c:502: intWifiStatus = getWifiStatus();
   1843 12 14 9E           4839 	lcall	_getWifiStatus
   1846 E5 82              4840 	mov	a,dpl
   1848 85 83 F0           4841 	mov	b,dph
   184B 90 F2 88           4842 	mov	dptr,#_wifiConnect_intWifiStatus_1_1
   184E F0                 4843 	movx	@dptr,a
   184F A3                 4844 	inc	dptr
   1850 E5 F0              4845 	mov	a,b
   1852 F0                 4846 	movx	@dptr,a
   1853                    4847 00104$:
                    1224   4848 	C$ydrip.c$506$1$1 ==.
                           4849 ;	apps/ydrip/ydrip.c:506: if (intWifiStatus != 5) {
   1853 90 F2 88           4850 	mov	dptr,#_wifiConnect_intWifiStatus_1_1
   1856 E0                 4851 	movx	a,@dptr
   1857 FE                 4852 	mov	r6,a
   1858 A3                 4853 	inc	dptr
   1859 E0                 4854 	movx	a,@dptr
   185A FF                 4855 	mov	r7,a
   185B BE 05 05           4856 	cjne	r6,#0x05,00124$
   185E BF 00 02           4857 	cjne	r7,#0x00,00124$
   1861 80 53              4858 	sjmp	00106$
   1863                    4859 00124$:
                    1234   4860 	C$ydrip.c$507$2$4 ==.
                           4861 ;	apps/ydrip/ydrip.c:507: printf("gpio.write(4, gpio.LOW)\r\n");								// Switch on Blue LED
   1863 74 F3              4862 	mov	a,#__str_32
   1865 C0 E0              4863 	push	acc
   1867 74 63              4864 	mov	a,#(__str_32 >> 8)
   1869 C0 E0              4865 	push	acc
   186B 74 80              4866 	mov	a,#0x80
   186D C0 E0              4867 	push	acc
   186F 12 50 CA           4868 	lcall	_printf
   1872 15 81              4869 	dec	sp
   1874 15 81              4870 	dec	sp
   1876 15 81              4871 	dec	sp
                    1249   4872 	C$ydrip.c$508$2$4 ==.
                           4873 ;	apps/ydrip/ydrip.c:508: delayMs(defaultWaitTime);
   1878 90 F8 74           4874 	mov	dptr,#_defaultWaitTime
   187B E0                 4875 	movx	a,@dptr
   187C FC                 4876 	mov	r4,a
   187D A3                 4877 	inc	dptr
   187E E0                 4878 	movx	a,@dptr
   187F FD                 4879 	mov	r5,a
   1880 A3                 4880 	inc	dptr
   1881 E0                 4881 	movx	a,@dptr
   1882 A3                 4882 	inc	dptr
   1883 E0                 4883 	movx	a,@dptr
   1884 8C 82              4884 	mov	dpl,r4
   1886 8D 83              4885 	mov	dph,r5
   1888 12 4C EF           4886 	lcall	_delayMs
                    125C   4887 	C$ydrip.c$509$2$4 ==.
                           4888 ;	apps/ydrip/ydrip.c:509: printf("wifi.sta.config(\"SchoolUpstairs\",\"SchoolPassword\")  wifi.sta.connect()\r\n");	// Connect to AP1
   188B 74 B6              4889 	mov	a,#__str_36
   188D C0 E0              4890 	push	acc
   188F 74 64              4891 	mov	a,#(__str_36 >> 8)
   1891 C0 E0              4892 	push	acc
   1893 74 80              4893 	mov	a,#0x80
   1895 C0 E0              4894 	push	acc
   1897 12 50 CA           4895 	lcall	_printf
   189A 15 81              4896 	dec	sp
   189C 15 81              4897 	dec	sp
   189E 15 81              4898 	dec	sp
                    1271   4899 	C$ydrip.c$510$2$4 ==.
                           4900 ;	apps/ydrip/ydrip.c:510: wifiFlash();
   18A0 12 16 C1           4901 	lcall	_wifiFlash
                    1274   4902 	C$ydrip.c$511$2$4 ==.
                           4903 ;	apps/ydrip/ydrip.c:511: wifiFlash();							// Add in an extra round of flashing if this network can take longer to connect														// wait longer as slower netword
   18A3 12 16 C1           4904 	lcall	_wifiFlash
                    1277   4905 	C$ydrip.c$512$2$4 ==.
                           4906 ;	apps/ydrip/ydrip.c:512: intWifiStatus = getWifiStatus();
   18A6 12 14 9E           4907 	lcall	_getWifiStatus
   18A9 E5 82              4908 	mov	a,dpl
   18AB 85 83 F0           4909 	mov	b,dph
   18AE 90 F2 88           4910 	mov	dptr,#_wifiConnect_intWifiStatus_1_1
   18B1 F0                 4911 	movx	@dptr,a
   18B2 A3                 4912 	inc	dptr
   18B3 E5 F0              4913 	mov	a,b
   18B5 F0                 4914 	movx	@dptr,a
   18B6                    4915 00106$:
                    1287   4916 	C$ydrip.c$529$1$1 ==.
                           4917 ;	apps/ydrip/ydrip.c:529: if (intWifiStatus != 5) {
   18B6 90 F2 88           4918 	mov	dptr,#_wifiConnect_intWifiStatus_1_1
   18B9 E0                 4919 	movx	a,@dptr
   18BA FE                 4920 	mov	r6,a
   18BB A3                 4921 	inc	dptr
   18BC E0                 4922 	movx	a,@dptr
   18BD FF                 4923 	mov	r7,a
   18BE BE 05 05           4924 	cjne	r6,#0x05,00125$
   18C1 BF 00 02           4925 	cjne	r7,#0x00,00125$
   18C4 80 50              4926 	sjmp	00108$
   18C6                    4927 00125$:
                    1297   4928 	C$ydrip.c$530$2$5 ==.
                           4929 ;	apps/ydrip/ydrip.c:530: printf("gpio.write(4, gpio.LOW)\r\n");								// Switch on Blue LED
   18C6 74 F3              4930 	mov	a,#__str_32
   18C8 C0 E0              4931 	push	acc
   18CA 74 63              4932 	mov	a,#(__str_32 >> 8)
   18CC C0 E0              4933 	push	acc
   18CE 74 80              4934 	mov	a,#0x80
   18D0 C0 E0              4935 	push	acc
   18D2 12 50 CA           4936 	lcall	_printf
   18D5 15 81              4937 	dec	sp
   18D7 15 81              4938 	dec	sp
   18D9 15 81              4939 	dec	sp
                    12AC   4940 	C$ydrip.c$531$2$5 ==.
                           4941 ;	apps/ydrip/ydrip.c:531: delayMs(defaultWaitTime);
   18DB 90 F8 74           4942 	mov	dptr,#_defaultWaitTime
   18DE E0                 4943 	movx	a,@dptr
   18DF FC                 4944 	mov	r4,a
   18E0 A3                 4945 	inc	dptr
   18E1 E0                 4946 	movx	a,@dptr
   18E2 FD                 4947 	mov	r5,a
   18E3 A3                 4948 	inc	dptr
   18E4 E0                 4949 	movx	a,@dptr
   18E5 A3                 4950 	inc	dptr
   18E6 E0                 4951 	movx	a,@dptr
   18E7 8C 82              4952 	mov	dpl,r4
   18E9 8D 83              4953 	mov	dph,r5
   18EB 12 4C EF           4954 	lcall	_delayMs
                    12BF   4955 	C$ydrip.c$532$2$5 ==.
                           4956 ;	apps/ydrip/ydrip.c:532: printf("wifi.sta.config(\"Hillside\",\"RandomChars\")  wifi.sta.connect()\r\n");	// Connect to AP1
   18EE 74 FF              4957 	mov	a,#__str_37
   18F0 C0 E0              4958 	push	acc
   18F2 74 64              4959 	mov	a,#(__str_37 >> 8)
   18F4 C0 E0              4960 	push	acc
   18F6 74 80              4961 	mov	a,#0x80
   18F8 C0 E0              4962 	push	acc
   18FA 12 50 CA           4963 	lcall	_printf
   18FD 15 81              4964 	dec	sp
   18FF 15 81              4965 	dec	sp
   1901 15 81              4966 	dec	sp
                    12D4   4967 	C$ydrip.c$533$2$5 ==.
                           4968 ;	apps/ydrip/ydrip.c:533: wifiFlash();
   1903 12 16 C1           4969 	lcall	_wifiFlash
                    12D7   4970 	C$ydrip.c$535$2$5 ==.
                           4971 ;	apps/ydrip/ydrip.c:535: intWifiStatus = getWifiStatus();
   1906 12 14 9E           4972 	lcall	_getWifiStatus
   1909 E5 82              4973 	mov	a,dpl
   190B 85 83 F0           4974 	mov	b,dph
   190E 90 F2 88           4975 	mov	dptr,#_wifiConnect_intWifiStatus_1_1
   1911 F0                 4976 	movx	@dptr,a
   1912 A3                 4977 	inc	dptr
   1913 E5 F0              4978 	mov	a,b
   1915 F0                 4979 	movx	@dptr,a
   1916                    4980 00108$:
                    12E7   4981 	C$ydrip.c$539$1$1 ==.
                           4982 ;	apps/ydrip/ydrip.c:539: if (intWifiStatus != 5) {
   1916 90 F2 88           4983 	mov	dptr,#_wifiConnect_intWifiStatus_1_1
   1919 E0                 4984 	movx	a,@dptr
   191A FE                 4985 	mov	r6,a
   191B A3                 4986 	inc	dptr
   191C E0                 4987 	movx	a,@dptr
   191D FF                 4988 	mov	r7,a
   191E BE 05 05           4989 	cjne	r6,#0x05,00126$
   1921 BF 00 02           4990 	cjne	r7,#0x00,00126$
   1924 80 50              4991 	sjmp	00110$
   1926                    4992 00126$:
                    12F7   4993 	C$ydrip.c$540$2$6 ==.
                           4994 ;	apps/ydrip/ydrip.c:540: printf("gpio.write(4, gpio.HIGH)\r\n");								// Switch off Blue LED (to make it flash)
   1926 74 D8              4995 	mov	a,#__str_31
   1928 C0 E0              4996 	push	acc
   192A 74 63              4997 	mov	a,#(__str_31 >> 8)
   192C C0 E0              4998 	push	acc
   192E 74 80              4999 	mov	a,#0x80
   1930 C0 E0              5000 	push	acc
   1932 12 50 CA           5001 	lcall	_printf
   1935 15 81              5002 	dec	sp
   1937 15 81              5003 	dec	sp
   1939 15 81              5004 	dec	sp
                    130C   5005 	C$ydrip.c$541$2$6 ==.
                           5006 ;	apps/ydrip/ydrip.c:541: delayMs(defaultWaitTime);
   193B 90 F8 74           5007 	mov	dptr,#_defaultWaitTime
   193E E0                 5008 	movx	a,@dptr
   193F FC                 5009 	mov	r4,a
   1940 A3                 5010 	inc	dptr
   1941 E0                 5011 	movx	a,@dptr
   1942 FD                 5012 	mov	r5,a
   1943 A3                 5013 	inc	dptr
   1944 E0                 5014 	movx	a,@dptr
   1945 A3                 5015 	inc	dptr
   1946 E0                 5016 	movx	a,@dptr
   1947 8C 82              5017 	mov	dpl,r4
   1949 8D 83              5018 	mov	dph,r5
   194B 12 4C EF           5019 	lcall	_delayMs
                    131F   5020 	C$ydrip.c$542$2$6 ==.
                           5021 ;	apps/ydrip/ydrip.c:542: printf("wifi.sta.config(\"Cagey_HTC\",\"Cagey1234567890\")  wifi.sta.connect()\r\n");	// Connect to AP1
   194E 74 3F              5022 	mov	a,#__str_38
   1950 C0 E0              5023 	push	acc
   1952 74 65              5024 	mov	a,#(__str_38 >> 8)
   1954 C0 E0              5025 	push	acc
   1956 74 80              5026 	mov	a,#0x80
   1958 C0 E0              5027 	push	acc
   195A 12 50 CA           5028 	lcall	_printf
   195D 15 81              5029 	dec	sp
   195F 15 81              5030 	dec	sp
   1961 15 81              5031 	dec	sp
                    1334   5032 	C$ydrip.c$543$2$6 ==.
                           5033 ;	apps/ydrip/ydrip.c:543: wifiFlash();
   1963 12 16 C1           5034 	lcall	_wifiFlash
                    1337   5035 	C$ydrip.c$545$2$6 ==.
                           5036 ;	apps/ydrip/ydrip.c:545: intWifiStatus = getWifiStatus();
   1966 12 14 9E           5037 	lcall	_getWifiStatus
   1969 E5 82              5038 	mov	a,dpl
   196B 85 83 F0           5039 	mov	b,dph
   196E 90 F2 88           5040 	mov	dptr,#_wifiConnect_intWifiStatus_1_1
   1971 F0                 5041 	movx	@dptr,a
   1972 A3                 5042 	inc	dptr
   1973 E5 F0              5043 	mov	a,b
   1975 F0                 5044 	movx	@dptr,a
   1976                    5045 00110$:
                    1347   5046 	C$ydrip.c$551$1$1 ==.
                           5047 ;	apps/ydrip/ydrip.c:551: if (intWifiStatus == 5) {
   1976 90 F2 88           5048 	mov	dptr,#_wifiConnect_intWifiStatus_1_1
   1979 E0                 5049 	movx	a,@dptr
   197A FE                 5050 	mov	r6,a
   197B A3                 5051 	inc	dptr
   197C E0                 5052 	movx	a,@dptr
   197D FF                 5053 	mov	r7,a
   197E BE 05 05           5054 	cjne	r6,#0x05,00127$
   1981 BF 00 02           5055 	cjne	r7,#0x00,00127$
   1984 80 03              5056 	sjmp	00128$
   1986                    5057 00127$:
   1986 02 1A AA           5058 	ljmp	00112$
   1989                    5059 00128$:
                    135A   5060 	C$ydrip.c$552$2$7 ==.
                           5061 ;	apps/ydrip/ydrip.c:552: printf("gpio.write(4, gpio.LOW)\r\n");																		// Make sure Blue LED is still on
   1989 74 F3              5062 	mov	a,#__str_32
   198B C0 E0              5063 	push	acc
   198D 74 63              5064 	mov	a,#(__str_32 >> 8)
   198F C0 E0              5065 	push	acc
   1991 74 80              5066 	mov	a,#0x80
   1993 C0 E0              5067 	push	acc
   1995 12 50 CA           5068 	lcall	_printf
   1998 15 81              5069 	dec	sp
   199A 15 81              5070 	dec	sp
   199C 15 81              5071 	dec	sp
                    136F   5072 	C$ydrip.c$553$2$7 ==.
                           5073 ;	apps/ydrip/ydrip.c:553: delayMs(defaultWaitTime);
   199E 90 F8 74           5074 	mov	dptr,#_defaultWaitTime
   19A1 E0                 5075 	movx	a,@dptr
   19A2 FC                 5076 	mov	r4,a
   19A3 A3                 5077 	inc	dptr
   19A4 E0                 5078 	movx	a,@dptr
   19A5 FD                 5079 	mov	r5,a
   19A6 A3                 5080 	inc	dptr
   19A7 E0                 5081 	movx	a,@dptr
   19A8 A3                 5082 	inc	dptr
   19A9 E0                 5083 	movx	a,@dptr
   19AA 8C 82              5084 	mov	dpl,r4
   19AC 8D 83              5085 	mov	dph,r5
   19AE 12 4C EF           5086 	lcall	_delayMs
                    1382   5087 	C$ydrip.c$554$2$7 ==.
                           5088 ;	apps/ydrip/ydrip.c:554: strcpy(atString, "sk=net.createConnection(net.TCP, 0)\r\n"); sendAT(atString); delayMs(defaultWaitTime);	// Save changes
   19B1 78 5E              5089 	mov	r0,#_strcpy_PARM_2
   19B3 74 84              5090 	mov	a,#__str_39
   19B5 F2                 5091 	movx	@r0,a
   19B6 08                 5092 	inc	r0
   19B7 74 65              5093 	mov	a,#(__str_39 >> 8)
   19B9 F2                 5094 	movx	@r0,a
   19BA 08                 5095 	inc	r0
   19BB 74 80              5096 	mov	a,#0x80
   19BD F2                 5097 	movx	@r0,a
   19BE 90 F2 60           5098 	mov	dptr,#_wifiConnect_atString_1_1
   19C1 75 F0 00           5099 	mov	b,#0x00
   19C4 12 31 E6           5100 	lcall	_strcpy
   19C7 90 F2 60           5101 	mov	dptr,#_wifiConnect_atString_1_1
   19CA 12 0B 57           5102 	lcall	_sendAT
   19CD 90 F8 74           5103 	mov	dptr,#_defaultWaitTime
   19D0 E0                 5104 	movx	a,@dptr
   19D1 FC                 5105 	mov	r4,a
   19D2 A3                 5106 	inc	dptr
   19D3 E0                 5107 	movx	a,@dptr
   19D4 FD                 5108 	mov	r5,a
   19D5 A3                 5109 	inc	dptr
   19D6 E0                 5110 	movx	a,@dptr
   19D7 A3                 5111 	inc	dptr
   19D8 E0                 5112 	movx	a,@dptr
   19D9 8C 82              5113 	mov	dpl,r4
   19DB 8D 83              5114 	mov	dph,r5
   19DD 12 4C EF           5115 	lcall	_delayMs
                    13B1   5116 	C$ydrip.c$555$2$7 ==.
                           5117 ;	apps/ydrip/ydrip.c:555: strcpy(atString, "sk:on(\"receive\", function(sck, c) print(c) end )\r\n"); sendAT(atString);				// print stuff you get back
   19E0 78 5E              5118 	mov	r0,#_strcpy_PARM_2
   19E2 74 AA              5119 	mov	a,#__str_40
   19E4 F2                 5120 	movx	@r0,a
   19E5 08                 5121 	inc	r0
   19E6 74 65              5122 	mov	a,#(__str_40 >> 8)
   19E8 F2                 5123 	movx	@r0,a
   19E9 08                 5124 	inc	r0
   19EA 74 80              5125 	mov	a,#0x80
   19EC F2                 5126 	movx	@r0,a
   19ED 90 F2 60           5127 	mov	dptr,#_wifiConnect_atString_1_1
   19F0 75 F0 00           5128 	mov	b,#0x00
   19F3 12 31 E6           5129 	lcall	_strcpy
   19F6 90 F2 60           5130 	mov	dptr,#_wifiConnect_atString_1_1
   19F9 12 0B 57           5131 	lcall	_sendAT
                    13CD   5132 	C$ydrip.c$556$2$7 ==.
                           5133 ;	apps/ydrip/ydrip.c:556: delayMs(defaultWaitTime);
   19FC 90 F8 74           5134 	mov	dptr,#_defaultWaitTime
   19FF E0                 5135 	movx	a,@dptr
   1A00 FC                 5136 	mov	r4,a
   1A01 A3                 5137 	inc	dptr
   1A02 E0                 5138 	movx	a,@dptr
   1A03 FD                 5139 	mov	r5,a
   1A04 A3                 5140 	inc	dptr
   1A05 E0                 5141 	movx	a,@dptr
   1A06 A3                 5142 	inc	dptr
   1A07 E0                 5143 	movx	a,@dptr
   1A08 8C 82              5144 	mov	dpl,r4
   1A0A 8D 83              5145 	mov	dph,r5
   1A0C 12 4C EF           5146 	lcall	_delayMs
                    13E0   5147 	C$ydrip.c$557$2$7 ==.
                           5148 ;	apps/ydrip/ydrip.c:557: strcpy(atString, "sk:connect(");
   1A0F 78 5E              5149 	mov	r0,#_strcpy_PARM_2
   1A11 74 DD              5150 	mov	a,#__str_41
   1A13 F2                 5151 	movx	@r0,a
   1A14 08                 5152 	inc	r0
   1A15 74 65              5153 	mov	a,#(__str_41 >> 8)
   1A17 F2                 5154 	movx	@r0,a
   1A18 08                 5155 	inc	r0
   1A19 74 80              5156 	mov	a,#0x80
   1A1B F2                 5157 	movx	@r0,a
   1A1C 90 F2 60           5158 	mov	dptr,#_wifiConnect_atString_1_1
   1A1F 75 F0 00           5159 	mov	b,#0x00
   1A22 12 31 E6           5160 	lcall	_strcpy
                    13F6   5161 	C$ydrip.c$558$2$7 ==.
                           5162 ;	apps/ydrip/ydrip.c:558: strcat(atString, dexie_host_port);
   1A25 78 84              5163 	mov	r0,#_strcat_PARM_2
   1A27 74 41              5164 	mov	a,#_dexie_host_port
   1A29 F2                 5165 	movx	@r0,a
   1A2A 08                 5166 	inc	r0
   1A2B 74 F8              5167 	mov	a,#(_dexie_host_port >> 8)
   1A2D F2                 5168 	movx	@r0,a
   1A2E 08                 5169 	inc	r0
   1A2F E4                 5170 	clr	a
   1A30 F2                 5171 	movx	@r0,a
   1A31 90 F2 60           5172 	mov	dptr,#_wifiConnect_atString_1_1
   1A34 75 F0 00           5173 	mov	b,#0x00
   1A37 12 36 2A           5174 	lcall	_strcat
                    140B   5175 	C$ydrip.c$559$2$7 ==.
                           5176 ;	apps/ydrip/ydrip.c:559: strcat(atString, ",\"");
   1A3A 78 84              5177 	mov	r0,#_strcat_PARM_2
   1A3C 74 E9              5178 	mov	a,#__str_42
   1A3E F2                 5179 	movx	@r0,a
   1A3F 08                 5180 	inc	r0
   1A40 74 65              5181 	mov	a,#(__str_42 >> 8)
   1A42 F2                 5182 	movx	@r0,a
   1A43 08                 5183 	inc	r0
   1A44 74 80              5184 	mov	a,#0x80
   1A46 F2                 5185 	movx	@r0,a
   1A47 90 F2 60           5186 	mov	dptr,#_wifiConnect_atString_1_1
   1A4A 75 F0 00           5187 	mov	b,#0x00
   1A4D 12 36 2A           5188 	lcall	_strcat
                    1421   5189 	C$ydrip.c$560$2$7 ==.
                           5190 ;	apps/ydrip/ydrip.c:560: strcat(atString, dexie_host_address);
   1A50 78 84              5191 	mov	r0,#_strcat_PARM_2
   1A52 74 2B              5192 	mov	a,#_dexie_host_address
   1A54 F2                 5193 	movx	@r0,a
   1A55 08                 5194 	inc	r0
   1A56 74 F8              5195 	mov	a,#(_dexie_host_address >> 8)
   1A58 F2                 5196 	movx	@r0,a
   1A59 08                 5197 	inc	r0
   1A5A E4                 5198 	clr	a
   1A5B F2                 5199 	movx	@r0,a
   1A5C 90 F2 60           5200 	mov	dptr,#_wifiConnect_atString_1_1
   1A5F 75 F0 00           5201 	mov	b,#0x00
   1A62 12 36 2A           5202 	lcall	_strcat
                    1436   5203 	C$ydrip.c$561$2$7 ==.
                           5204 ;	apps/ydrip/ydrip.c:561: strcat(atString, "\")\r\n");
   1A65 78 84              5205 	mov	r0,#_strcat_PARM_2
   1A67 74 EC              5206 	mov	a,#__str_43
   1A69 F2                 5207 	movx	@r0,a
   1A6A 08                 5208 	inc	r0
   1A6B 74 65              5209 	mov	a,#(__str_43 >> 8)
   1A6D F2                 5210 	movx	@r0,a
   1A6E 08                 5211 	inc	r0
   1A6F 74 80              5212 	mov	a,#0x80
   1A71 F2                 5213 	movx	@r0,a
   1A72 90 F2 60           5214 	mov	dptr,#_wifiConnect_atString_1_1
   1A75 75 F0 00           5215 	mov	b,#0x00
   1A78 12 36 2A           5216 	lcall	_strcat
                    144C   5217 	C$ydrip.c$562$2$7 ==.
                           5218 ;	apps/ydrip/ydrip.c:562: sendAT(atString);
   1A7B 90 F2 60           5219 	mov	dptr,#_wifiConnect_atString_1_1
   1A7E 12 0B 57           5220 	lcall	_sendAT
                    1452   5221 	C$ydrip.c$564$2$7 ==.
                           5222 ;	apps/ydrip/ydrip.c:564: delayMs(defaultWaitTime);
   1A81 90 F8 74           5223 	mov	dptr,#_defaultWaitTime
   1A84 E0                 5224 	movx	a,@dptr
   1A85 FC                 5225 	mov	r4,a
   1A86 A3                 5226 	inc	dptr
   1A87 E0                 5227 	movx	a,@dptr
   1A88 FD                 5228 	mov	r5,a
   1A89 A3                 5229 	inc	dptr
   1A8A E0                 5230 	movx	a,@dptr
   1A8B A3                 5231 	inc	dptr
   1A8C E0                 5232 	movx	a,@dptr
   1A8D 8C 82              5233 	mov	dpl,r4
   1A8F 8D 83              5234 	mov	dph,r5
   1A91 12 4C EF           5235 	lcall	_delayMs
                    1465   5236 	C$ydrip.c$565$2$7 ==.
                           5237 ;	apps/ydrip/ydrip.c:565: delayMs(defaultWaitTime);								        	// another delay to be sure server is listening
   1A94 90 F8 74           5238 	mov	dptr,#_defaultWaitTime
   1A97 E0                 5239 	movx	a,@dptr
   1A98 FC                 5240 	mov	r4,a
   1A99 A3                 5241 	inc	dptr
   1A9A E0                 5242 	movx	a,@dptr
   1A9B FD                 5243 	mov	r5,a
   1A9C A3                 5244 	inc	dptr
   1A9D E0                 5245 	movx	a,@dptr
   1A9E A3                 5246 	inc	dptr
   1A9F E0                 5247 	movx	a,@dptr
   1AA0 8C 82              5248 	mov	dpl,r4
   1AA2 8D 83              5249 	mov	dph,r5
   1AA4 12 4C EF           5250 	lcall	_delayMs
                    1478   5251 	C$ydrip.c$566$2$7 ==.
                           5252 ;	apps/ydrip/ydrip.c:566: return 1;
   1AA7 D3                 5253 	setb	c
   1AA8 80 29              5254 	sjmp	00114$
   1AAA                    5255 00112$:
                    147B   5256 	C$ydrip.c$568$2$8 ==.
                           5257 ;	apps/ydrip/ydrip.c:568: printf("gpio.write(4, gpio.HIGH)\r\n");delayMs(defaultWaitTime);	// Switch off Blue LED (to show no wifi connection)
   1AAA 74 D8              5258 	mov	a,#__str_31
   1AAC C0 E0              5259 	push	acc
   1AAE 74 63              5260 	mov	a,#(__str_31 >> 8)
   1AB0 C0 E0              5261 	push	acc
   1AB2 74 80              5262 	mov	a,#0x80
   1AB4 C0 E0              5263 	push	acc
   1AB6 12 50 CA           5264 	lcall	_printf
   1AB9 15 81              5265 	dec	sp
   1ABB 15 81              5266 	dec	sp
   1ABD 15 81              5267 	dec	sp
   1ABF 90 F8 74           5268 	mov	dptr,#_defaultWaitTime
   1AC2 E0                 5269 	movx	a,@dptr
   1AC3 FC                 5270 	mov	r4,a
   1AC4 A3                 5271 	inc	dptr
   1AC5 E0                 5272 	movx	a,@dptr
   1AC6 FD                 5273 	mov	r5,a
   1AC7 A3                 5274 	inc	dptr
   1AC8 E0                 5275 	movx	a,@dptr
   1AC9 A3                 5276 	inc	dptr
   1ACA E0                 5277 	movx	a,@dptr
   1ACB 8C 82              5278 	mov	dpl,r4
   1ACD 8D 83              5279 	mov	dph,r5
   1ACF 12 4C EF           5280 	lcall	_delayMs
                    14A3   5281 	C$ydrip.c$569$2$8 ==.
                           5282 ;	apps/ydrip/ydrip.c:569: return 0;
   1AD2 C3                 5283 	clr	c
   1AD3                    5284 00114$:
                    14A4   5285 	C$ydrip.c$571$1$1 ==.
                    14A4   5286 	XG$wifiConnect$0$0 ==.
   1AD3 22                 5287 	ret
                           5288 ;------------------------------------------------------------
                           5289 ;Allocation info for local variables in function 'getTimeBytes'
                           5290 ;------------------------------------------------------------
                           5291 ;c                         Allocated with name '_getTimeBytes_c_1_1'
                           5292 ;lenC                      Allocated with name '_getTimeBytes_lenC_1_1'
                           5293 ;i                         Allocated with name '_getTimeBytes_i_1_1'
                           5294 ;strMMM                    Allocated with name '_getTimeBytes_strMMM_1_1'
                           5295 ;------------------------------------------------------------
                    14A5   5296 	G$getTimeBytes$0$0 ==.
                    14A5   5297 	C$ydrip.c$573$1$1 ==.
                           5298 ;	apps/ydrip/ydrip.c:573: void getTimeBytes(InitVect* tVector) {
                           5299 ;	-----------------------------------------
                           5300 ;	 function getTimeBytes
                           5301 ;	-----------------------------------------
   1AD4                    5302 _getTimeBytes:
   1AD4 AF 83              5303 	mov	r7,dph
   1AD6 E5 82              5304 	mov	a,dpl
   1AD8 78 45              5305 	mov	r0,#_getTimeBytes_tVector_1_1
   1ADA F2                 5306 	movx	@r0,a
   1ADB 08                 5307 	inc	r0
   1ADC EF                 5308 	mov	a,r7
   1ADD F2                 5309 	movx	@r0,a
                    14AF   5310 	C$ydrip.c$596$1$1 ==.
                           5311 ;	apps/ydrip/ydrip.c:596: while (uart1RxAvailable()) strcpy(c, getESPString());					// Clear RX buffer
   1ADE                    5312 00101$:
   1ADE 12 2E 0F           5313 	lcall	_uart1RxAvailable
   1AE1 E5 82              5314 	mov	a,dpl
   1AE3 60 1C              5315 	jz	00103$
   1AE5 12 09 FE           5316 	lcall	_getESPString
   1AE8 AC 82              5317 	mov	r4,dpl
   1AEA AD 83              5318 	mov	r5,dph
   1AEC 78 5E              5319 	mov	r0,#_strcpy_PARM_2
   1AEE EC                 5320 	mov	a,r4
   1AEF F2                 5321 	movx	@r0,a
   1AF0 08                 5322 	inc	r0
   1AF1 ED                 5323 	mov	a,r5
   1AF2 F2                 5324 	movx	@r0,a
   1AF3 08                 5325 	inc	r0
   1AF4 E4                 5326 	clr	a
   1AF5 F2                 5327 	movx	@r0,a
   1AF6 90 F2 8A           5328 	mov	dptr,#_getTimeBytes_c_1_1
   1AF9 75 F0 00           5329 	mov	b,#0x00
   1AFC 12 31 E6           5330 	lcall	_strcpy
   1AFF 80 DD              5331 	sjmp	00101$
   1B01                    5332 00103$:
                    14D2   5333 	C$ydrip.c$597$1$1 ==.
                           5334 ;	apps/ydrip/ydrip.c:597: strcpy(c, (getESPString())); // Clear buffer
   1B01 12 09 FE           5335 	lcall	_getESPString
   1B04 AC 82              5336 	mov	r4,dpl
   1B06 AD 83              5337 	mov	r5,dph
   1B08 78 5E              5338 	mov	r0,#_strcpy_PARM_2
   1B0A EC                 5339 	mov	a,r4
   1B0B F2                 5340 	movx	@r0,a
   1B0C 08                 5341 	inc	r0
   1B0D ED                 5342 	mov	a,r5
   1B0E F2                 5343 	movx	@r0,a
   1B0F 08                 5344 	inc	r0
   1B10 E4                 5345 	clr	a
   1B11 F2                 5346 	movx	@r0,a
   1B12 90 F2 8A           5347 	mov	dptr,#_getTimeBytes_c_1_1
   1B15 75 F0 00           5348 	mov	b,#0x00
   1B18 12 31 E6           5349 	lcall	_strcpy
                    14EC   5350 	C$ydrip.c$598$1$1 ==.
                           5351 ;	apps/ydrip/ydrip.c:598: printf("dofile(\"googletime.lua\")\r\n") ; delayMs(defaultWaitTime);	// Make connection and trigger output of date
   1B1B 74 F1              5352 	mov	a,#__str_44
   1B1D C0 E0              5353 	push	acc
   1B1F 74 65              5354 	mov	a,#(__str_44 >> 8)
   1B21 C0 E0              5355 	push	acc
   1B23 74 80              5356 	mov	a,#0x80
   1B25 C0 E0              5357 	push	acc
   1B27 12 50 CA           5358 	lcall	_printf
   1B2A 15 81              5359 	dec	sp
   1B2C 15 81              5360 	dec	sp
   1B2E 15 81              5361 	dec	sp
   1B30 90 F8 74           5362 	mov	dptr,#_defaultWaitTime
   1B33 E0                 5363 	movx	a,@dptr
   1B34 FA                 5364 	mov	r2,a
   1B35 A3                 5365 	inc	dptr
   1B36 E0                 5366 	movx	a,@dptr
   1B37 FB                 5367 	mov	r3,a
   1B38 A3                 5368 	inc	dptr
   1B39 E0                 5369 	movx	a,@dptr
   1B3A A3                 5370 	inc	dptr
   1B3B E0                 5371 	movx	a,@dptr
   1B3C 8A 82              5372 	mov	dpl,r2
   1B3E 8B 83              5373 	mov	dph,r3
   1B40 12 4C EF           5374 	lcall	_delayMs
                    1514   5375 	C$ydrip.c$599$1$1 ==.
                           5376 ;	apps/ydrip/ydrip.c:599: strcpy(c, getESPString());
   1B43 12 09 FE           5377 	lcall	_getESPString
   1B46 AC 82              5378 	mov	r4,dpl
   1B48 AD 83              5379 	mov	r5,dph
   1B4A 78 5E              5380 	mov	r0,#_strcpy_PARM_2
   1B4C EC                 5381 	mov	a,r4
   1B4D F2                 5382 	movx	@r0,a
   1B4E 08                 5383 	inc	r0
   1B4F ED                 5384 	mov	a,r5
   1B50 F2                 5385 	movx	@r0,a
   1B51 08                 5386 	inc	r0
   1B52 E4                 5387 	clr	a
   1B53 F2                 5388 	movx	@r0,a
   1B54 90 F2 8A           5389 	mov	dptr,#_getTimeBytes_c_1_1
   1B57 75 F0 00           5390 	mov	b,#0x00
   1B5A 12 31 E6           5391 	lcall	_strcpy
                    152E   5392 	C$ydrip.c$600$1$1 ==.
                           5393 ;	apps/ydrip/ydrip.c:600: lenC=strlen(c);
   1B5D 90 F2 8A           5394 	mov	dptr,#_getTimeBytes_c_1_1
   1B60 75 F0 00           5395 	mov	b,#0x00
   1B63 12 58 09           5396 	lcall	_strlen
   1B66 AC 82              5397 	mov	r4,dpl
   1B68 AD 83              5398 	mov	r5,dph
                    153B   5399 	C$ydrip.c$601$1$1 ==.
                           5400 ;	apps/ydrip/ydrip.c:601: if (debug_mode) printf("-- **DEBUG** length of C is %d\r\n", lenC);
   1B6A 30 03 21           5401 	jnb	_debug_mode,00105$
   1B6D C0 05              5402 	push	ar5
   1B6F C0 04              5403 	push	ar4
   1B71 C0 04              5404 	push	ar4
   1B73 C0 05              5405 	push	ar5
   1B75 74 0C              5406 	mov	a,#__str_45
   1B77 C0 E0              5407 	push	acc
   1B79 74 66              5408 	mov	a,#(__str_45 >> 8)
   1B7B C0 E0              5409 	push	acc
   1B7D 74 80              5410 	mov	a,#0x80
   1B7F C0 E0              5411 	push	acc
   1B81 12 50 CA           5412 	lcall	_printf
   1B84 E5 81              5413 	mov	a,sp
   1B86 24 FB              5414 	add	a,#0xfb
   1B88 F5 81              5415 	mov	sp,a
   1B8A D0 04              5416 	pop	ar4
   1B8C D0 05              5417 	pop	ar5
   1B8E                    5418 00105$:
                    155F   5419 	C$ydrip.c$602$1$1 ==.
                           5420 ;	apps/ydrip/ydrip.c:602: printf("\r\n"); delayMs(defaultWaitTime);						//	Press return a couple of times
   1B8E C0 04              5421 	push	ar4
   1B90 C0 05              5422 	push	ar5
   1B92 C0 05              5423 	push	ar5
   1B94 C0 04              5424 	push	ar4
   1B96 74 2D              5425 	mov	a,#__str_46
   1B98 C0 E0              5426 	push	acc
   1B9A 74 66              5427 	mov	a,#(__str_46 >> 8)
   1B9C C0 E0              5428 	push	acc
   1B9E 74 80              5429 	mov	a,#0x80
   1BA0 C0 E0              5430 	push	acc
   1BA2 12 50 CA           5431 	lcall	_printf
   1BA5 15 81              5432 	dec	sp
   1BA7 15 81              5433 	dec	sp
   1BA9 15 81              5434 	dec	sp
   1BAB D0 04              5435 	pop	ar4
   1BAD D0 05              5436 	pop	ar5
   1BAF 90 F8 74           5437 	mov	dptr,#_defaultWaitTime
   1BB2 E0                 5438 	movx	a,@dptr
   1BB3 FA                 5439 	mov	r2,a
   1BB4 A3                 5440 	inc	dptr
   1BB5 E0                 5441 	movx	a,@dptr
   1BB6 FB                 5442 	mov	r3,a
   1BB7 A3                 5443 	inc	dptr
   1BB8 E0                 5444 	movx	a,@dptr
   1BB9 FC                 5445 	mov	r4,a
   1BBA A3                 5446 	inc	dptr
   1BBB E0                 5447 	movx	a,@dptr
   1BBC FD                 5448 	mov	r5,a
   1BBD 8A 82              5449 	mov	dpl,r2
   1BBF 8B 83              5450 	mov	dph,r3
   1BC1 C0 05              5451 	push	ar5
   1BC3 C0 04              5452 	push	ar4
   1BC5 12 4C EF           5453 	lcall	_delayMs
                    1599   5454 	C$ydrip.c$603$1$1 ==.
                           5455 ;	apps/ydrip/ydrip.c:603: printf("\r\n"); delayMs(defaultWaitTime);						//	to get ESP back to normal prompt
   1BC8 74 2D              5456 	mov	a,#__str_46
   1BCA C0 E0              5457 	push	acc
   1BCC 74 66              5458 	mov	a,#(__str_46 >> 8)
   1BCE C0 E0              5459 	push	acc
   1BD0 74 80              5460 	mov	a,#0x80
   1BD2 C0 E0              5461 	push	acc
   1BD4 12 50 CA           5462 	lcall	_printf
   1BD7 15 81              5463 	dec	sp
   1BD9 15 81              5464 	dec	sp
   1BDB 15 81              5465 	dec	sp
   1BDD D0 04              5466 	pop	ar4
   1BDF D0 05              5467 	pop	ar5
   1BE1 90 F8 74           5468 	mov	dptr,#_defaultWaitTime
   1BE4 E0                 5469 	movx	a,@dptr
   1BE5 FA                 5470 	mov	r2,a
   1BE6 A3                 5471 	inc	dptr
   1BE7 E0                 5472 	movx	a,@dptr
   1BE8 FB                 5473 	mov	r3,a
   1BE9 A3                 5474 	inc	dptr
   1BEA E0                 5475 	movx	a,@dptr
   1BEB FC                 5476 	mov	r4,a
   1BEC A3                 5477 	inc	dptr
   1BED E0                 5478 	movx	a,@dptr
   1BEE FD                 5479 	mov	r5,a
   1BEF 8A 82              5480 	mov	dpl,r2
   1BF1 8B 83              5481 	mov	dph,r3
   1BF3 C0 05              5482 	push	ar5
   1BF5 C0 04              5483 	push	ar4
   1BF7 12 4C EF           5484 	lcall	_delayMs
   1BFA D0 04              5485 	pop	ar4
   1BFC D0 05              5486 	pop	ar5
                    15CF   5487 	C$ydrip.c$631$1$1 ==.
                           5488 ;	apps/ydrip/ydrip.c:631: if (strcmp(strMMM,"Dec") == 0)	tVector->iv[5] = '2';
   1BFE D0 05              5489 	pop	ar5
   1C00 D0 04              5490 	pop	ar4
                    15D3   5491 	C$ydrip.c$606$1$1 ==.
                           5492 ;	apps/ydrip/ydrip.c:606: while (i < 14) {												//	Put the relevant characters from the response string into the IV array
   1C02 7B 00              5493 	mov	r3,#0x00
   1C04                    5494 00106$:
   1C04 C3                 5495 	clr	c
   1C05 EB                 5496 	mov	a,r3
   1C06 64 80              5497 	xrl	a,#0x80
   1C08 94 8E              5498 	subb	a,#0x8e
   1C0A 50 23              5499 	jnc	00108$
                    15DD   5500 	C$ydrip.c$607$2$2 ==.
                           5501 ;	apps/ydrip/ydrip.c:607: tVector->iv[i] =  c[(lenC - 21) + i];
   1C0C 78 45              5502 	mov	r0,#_getTimeBytes_tVector_1_1
   1C0E E2                 5503 	movx	a,@r0
   1C0F 2B                 5504 	add	a,r3
   1C10 FA                 5505 	mov	r2,a
   1C11 08                 5506 	inc	r0
   1C12 E2                 5507 	movx	a,@r0
   1C13 34 00              5508 	addc	a,#0x00
   1C15 FF                 5509 	mov	r7,a
   1C16 8C 06              5510 	mov	ar6,r4
   1C18 EE                 5511 	mov	a,r6
   1C19 24 EB              5512 	add	a,#0xEB
   1C1B 2B                 5513 	add	a,r3
   1C1C 24 8A              5514 	add	a,#_getTimeBytes_c_1_1
   1C1E F5 82              5515 	mov	dpl,a
   1C20 E4                 5516 	clr	a
   1C21 34 F2              5517 	addc	a,#(_getTimeBytes_c_1_1 >> 8)
   1C23 F5 83              5518 	mov	dph,a
   1C25 E0                 5519 	movx	a,@dptr
   1C26 FE                 5520 	mov	r6,a
   1C27 8A 82              5521 	mov	dpl,r2
   1C29 8F 83              5522 	mov	dph,r7
   1C2B F0                 5523 	movx	@dptr,a
                    15FD   5524 	C$ydrip.c$608$2$2 ==.
                           5525 ;	apps/ydrip/ydrip.c:608: i++;
   1C2C 0B                 5526 	inc	r3
   1C2D 80 D5              5527 	sjmp	00106$
   1C2F                    5528 00108$:
                    1600   5529 	C$ydrip.c$612$1$1 ==.
                           5530 ;	apps/ydrip/ydrip.c:612: strMMM[0]=c[(lenC - 21) + 14];
   1C2F 74 F9              5531 	mov	a,#0xF9
   1C31 2C                 5532 	add	a,r4
   1C32 24 8A              5533 	add	a,#_getTimeBytes_c_1_1
   1C34 F5 82              5534 	mov	dpl,a
   1C36 E4                 5535 	clr	a
   1C37 34 F2              5536 	addc	a,#(_getTimeBytes_c_1_1 >> 8)
   1C39 F5 83              5537 	mov	dph,a
   1C3B E0                 5538 	movx	a,@dptr
   1C3C 90 F2 DA           5539 	mov	dptr,#_getTimeBytes_strMMM_1_1
   1C3F F0                 5540 	movx	@dptr,a
                    1611   5541 	C$ydrip.c$613$1$1 ==.
                           5542 ;	apps/ydrip/ydrip.c:613: strMMM[1]=c[(lenC - 21) + 15];
   1C40 74 FA              5543 	mov	a,#0xFA
   1C42 2C                 5544 	add	a,r4
   1C43 24 8A              5545 	add	a,#_getTimeBytes_c_1_1
   1C45 F5 82              5546 	mov	dpl,a
   1C47 E4                 5547 	clr	a
   1C48 34 F2              5548 	addc	a,#(_getTimeBytes_c_1_1 >> 8)
   1C4A F5 83              5549 	mov	dph,a
   1C4C E0                 5550 	movx	a,@dptr
   1C4D 90 F2 DB           5551 	mov	dptr,#(_getTimeBytes_strMMM_1_1 + 0x0001)
   1C50 F0                 5552 	movx	@dptr,a
                    1622   5553 	C$ydrip.c$614$1$1 ==.
                           5554 ;	apps/ydrip/ydrip.c:614: strMMM[2]=c[(lenC - 21) + 16];
   1C51 74 FB              5555 	mov	a,#0xFB
   1C53 2C                 5556 	add	a,r4
   1C54 24 8A              5557 	add	a,#_getTimeBytes_c_1_1
   1C56 F5 82              5558 	mov	dpl,a
   1C58 E4                 5559 	clr	a
   1C59 34 F2              5560 	addc	a,#(_getTimeBytes_c_1_1 >> 8)
   1C5B F5 83              5561 	mov	dph,a
   1C5D E0                 5562 	movx	a,@dptr
   1C5E 90 F2 DC           5563 	mov	dptr,#(_getTimeBytes_strMMM_1_1 + 0x0002)
   1C61 F0                 5564 	movx	@dptr,a
                    1633   5565 	C$ydrip.c$615$1$1 ==.
                           5566 ;	apps/ydrip/ydrip.c:615: strMMM[3]='\0';
   1C62 90 F2 DD           5567 	mov	dptr,#(_getTimeBytes_strMMM_1_1 + 0x0003)
   1C65 E4                 5568 	clr	a
   1C66 F0                 5569 	movx	@dptr,a
                    1638   5570 	C$ydrip.c$617$1$1 ==.
                           5571 ;	apps/ydrip/ydrip.c:617: tVector->iv[4] = '0';
   1C67 78 45              5572 	mov	r0,#_getTimeBytes_tVector_1_1
   1C69 E2                 5573 	movx	a,@r0
   1C6A 24 04              5574 	add	a,#0x04
   1C6C FE                 5575 	mov	r6,a
   1C6D 08                 5576 	inc	r0
   1C6E E2                 5577 	movx	a,@r0
   1C6F 34 00              5578 	addc	a,#0x00
   1C71 FF                 5579 	mov	r7,a
   1C72 8E 82              5580 	mov	dpl,r6
   1C74 8F 83              5581 	mov	dph,r7
   1C76 74 30              5582 	mov	a,#0x30
   1C78 F0                 5583 	movx	@dptr,a
                    164A   5584 	C$ydrip.c$618$1$1 ==.
                           5585 ;	apps/ydrip/ydrip.c:618: if (strcmp(strMMM,"Jan") == 0) tVector->iv[5] = '1';
   1C79 78 BB              5586 	mov	r0,#_strcmp_PARM_2
   1C7B 74 30              5587 	mov	a,#__str_47
   1C7D F2                 5588 	movx	@r0,a
   1C7E 08                 5589 	inc	r0
   1C7F 74 66              5590 	mov	a,#(__str_47 >> 8)
   1C81 F2                 5591 	movx	@r0,a
   1C82 08                 5592 	inc	r0
   1C83 74 80              5593 	mov	a,#0x80
   1C85 F2                 5594 	movx	@r0,a
   1C86 90 F2 DA           5595 	mov	dptr,#_getTimeBytes_strMMM_1_1
   1C89 75 F0 00           5596 	mov	b,#0x00
   1C8C C0 07              5597 	push	ar7
   1C8E C0 06              5598 	push	ar6
   1C90 12 4A B4           5599 	lcall	_strcmp
   1C93 E5 82              5600 	mov	a,dpl
   1C95 85 83 F0           5601 	mov	b,dph
   1C98 D0 06              5602 	pop	ar6
   1C9A D0 07              5603 	pop	ar7
   1C9C 45 F0              5604 	orl	a,b
   1C9E 70 10              5605 	jnz	00110$
   1CA0 78 45              5606 	mov	r0,#_getTimeBytes_tVector_1_1
   1CA2 E2                 5607 	movx	a,@r0
   1CA3 24 05              5608 	add	a,#0x05
   1CA5 F5 82              5609 	mov	dpl,a
   1CA7 08                 5610 	inc	r0
   1CA8 E2                 5611 	movx	a,@r0
   1CA9 34 00              5612 	addc	a,#0x00
   1CAB F5 83              5613 	mov	dph,a
   1CAD 74 31              5614 	mov	a,#0x31
   1CAF F0                 5615 	movx	@dptr,a
   1CB0                    5616 00110$:
                    1681   5617 	C$ydrip.c$619$1$1 ==.
                           5618 ;	apps/ydrip/ydrip.c:619: if (strcmp(strMMM,"Feb") == 0)	tVector->iv[5] = '2';
   1CB0 78 BB              5619 	mov	r0,#_strcmp_PARM_2
   1CB2 74 34              5620 	mov	a,#__str_48
   1CB4 F2                 5621 	movx	@r0,a
   1CB5 08                 5622 	inc	r0
   1CB6 74 66              5623 	mov	a,#(__str_48 >> 8)
   1CB8 F2                 5624 	movx	@r0,a
   1CB9 08                 5625 	inc	r0
   1CBA 74 80              5626 	mov	a,#0x80
   1CBC F2                 5627 	movx	@r0,a
   1CBD 90 F2 DA           5628 	mov	dptr,#_getTimeBytes_strMMM_1_1
   1CC0 75 F0 00           5629 	mov	b,#0x00
   1CC3 C0 07              5630 	push	ar7
   1CC5 C0 06              5631 	push	ar6
   1CC7 12 4A B4           5632 	lcall	_strcmp
   1CCA E5 82              5633 	mov	a,dpl
   1CCC 85 83 F0           5634 	mov	b,dph
   1CCF D0 06              5635 	pop	ar6
   1CD1 D0 07              5636 	pop	ar7
   1CD3 45 F0              5637 	orl	a,b
   1CD5 70 10              5638 	jnz	00112$
   1CD7 78 45              5639 	mov	r0,#_getTimeBytes_tVector_1_1
   1CD9 E2                 5640 	movx	a,@r0
   1CDA 24 05              5641 	add	a,#0x05
   1CDC F5 82              5642 	mov	dpl,a
   1CDE 08                 5643 	inc	r0
   1CDF E2                 5644 	movx	a,@r0
   1CE0 34 00              5645 	addc	a,#0x00
   1CE2 F5 83              5646 	mov	dph,a
   1CE4 74 32              5647 	mov	a,#0x32
   1CE6 F0                 5648 	movx	@dptr,a
   1CE7                    5649 00112$:
                    16B8   5650 	C$ydrip.c$620$1$1 ==.
                           5651 ;	apps/ydrip/ydrip.c:620: if (strcmp(strMMM,"Mar") == 0)	tVector->iv[5] = '3';
   1CE7 78 BB              5652 	mov	r0,#_strcmp_PARM_2
   1CE9 74 38              5653 	mov	a,#__str_49
   1CEB F2                 5654 	movx	@r0,a
   1CEC 08                 5655 	inc	r0
   1CED 74 66              5656 	mov	a,#(__str_49 >> 8)
   1CEF F2                 5657 	movx	@r0,a
   1CF0 08                 5658 	inc	r0
   1CF1 74 80              5659 	mov	a,#0x80
   1CF3 F2                 5660 	movx	@r0,a
   1CF4 90 F2 DA           5661 	mov	dptr,#_getTimeBytes_strMMM_1_1
   1CF7 75 F0 00           5662 	mov	b,#0x00
   1CFA C0 07              5663 	push	ar7
   1CFC C0 06              5664 	push	ar6
   1CFE 12 4A B4           5665 	lcall	_strcmp
   1D01 E5 82              5666 	mov	a,dpl
   1D03 85 83 F0           5667 	mov	b,dph
   1D06 D0 06              5668 	pop	ar6
   1D08 D0 07              5669 	pop	ar7
   1D0A 45 F0              5670 	orl	a,b
   1D0C 70 10              5671 	jnz	00114$
   1D0E 78 45              5672 	mov	r0,#_getTimeBytes_tVector_1_1
   1D10 E2                 5673 	movx	a,@r0
   1D11 24 05              5674 	add	a,#0x05
   1D13 F5 82              5675 	mov	dpl,a
   1D15 08                 5676 	inc	r0
   1D16 E2                 5677 	movx	a,@r0
   1D17 34 00              5678 	addc	a,#0x00
   1D19 F5 83              5679 	mov	dph,a
   1D1B 74 33              5680 	mov	a,#0x33
   1D1D F0                 5681 	movx	@dptr,a
   1D1E                    5682 00114$:
                    16EF   5683 	C$ydrip.c$621$1$1 ==.
                           5684 ;	apps/ydrip/ydrip.c:621: if (strcmp(strMMM,"Apr") == 0)	tVector->iv[5] = '4';
   1D1E 78 BB              5685 	mov	r0,#_strcmp_PARM_2
   1D20 74 3C              5686 	mov	a,#__str_50
   1D22 F2                 5687 	movx	@r0,a
   1D23 08                 5688 	inc	r0
   1D24 74 66              5689 	mov	a,#(__str_50 >> 8)
   1D26 F2                 5690 	movx	@r0,a
   1D27 08                 5691 	inc	r0
   1D28 74 80              5692 	mov	a,#0x80
   1D2A F2                 5693 	movx	@r0,a
   1D2B 90 F2 DA           5694 	mov	dptr,#_getTimeBytes_strMMM_1_1
   1D2E 75 F0 00           5695 	mov	b,#0x00
   1D31 C0 07              5696 	push	ar7
   1D33 C0 06              5697 	push	ar6
   1D35 12 4A B4           5698 	lcall	_strcmp
   1D38 E5 82              5699 	mov	a,dpl
   1D3A 85 83 F0           5700 	mov	b,dph
   1D3D D0 06              5701 	pop	ar6
   1D3F D0 07              5702 	pop	ar7
   1D41 45 F0              5703 	orl	a,b
   1D43 70 10              5704 	jnz	00116$
   1D45 78 45              5705 	mov	r0,#_getTimeBytes_tVector_1_1
   1D47 E2                 5706 	movx	a,@r0
   1D48 24 05              5707 	add	a,#0x05
   1D4A F5 82              5708 	mov	dpl,a
   1D4C 08                 5709 	inc	r0
   1D4D E2                 5710 	movx	a,@r0
   1D4E 34 00              5711 	addc	a,#0x00
   1D50 F5 83              5712 	mov	dph,a
   1D52 74 34              5713 	mov	a,#0x34
   1D54 F0                 5714 	movx	@dptr,a
   1D55                    5715 00116$:
                    1726   5716 	C$ydrip.c$622$1$1 ==.
                           5717 ;	apps/ydrip/ydrip.c:622: if (strcmp(strMMM,"May") == 0)	tVector->iv[5] = '5';
   1D55 78 BB              5718 	mov	r0,#_strcmp_PARM_2
   1D57 74 40              5719 	mov	a,#__str_51
   1D59 F2                 5720 	movx	@r0,a
   1D5A 08                 5721 	inc	r0
   1D5B 74 66              5722 	mov	a,#(__str_51 >> 8)
   1D5D F2                 5723 	movx	@r0,a
   1D5E 08                 5724 	inc	r0
   1D5F 74 80              5725 	mov	a,#0x80
   1D61 F2                 5726 	movx	@r0,a
   1D62 90 F2 DA           5727 	mov	dptr,#_getTimeBytes_strMMM_1_1
   1D65 75 F0 00           5728 	mov	b,#0x00
   1D68 C0 07              5729 	push	ar7
   1D6A C0 06              5730 	push	ar6
   1D6C 12 4A B4           5731 	lcall	_strcmp
   1D6F E5 82              5732 	mov	a,dpl
   1D71 85 83 F0           5733 	mov	b,dph
   1D74 D0 06              5734 	pop	ar6
   1D76 D0 07              5735 	pop	ar7
   1D78 45 F0              5736 	orl	a,b
   1D7A 70 10              5737 	jnz	00118$
   1D7C 78 45              5738 	mov	r0,#_getTimeBytes_tVector_1_1
   1D7E E2                 5739 	movx	a,@r0
   1D7F 24 05              5740 	add	a,#0x05
   1D81 F5 82              5741 	mov	dpl,a
   1D83 08                 5742 	inc	r0
   1D84 E2                 5743 	movx	a,@r0
   1D85 34 00              5744 	addc	a,#0x00
   1D87 F5 83              5745 	mov	dph,a
   1D89 74 35              5746 	mov	a,#0x35
   1D8B F0                 5747 	movx	@dptr,a
   1D8C                    5748 00118$:
                    175D   5749 	C$ydrip.c$623$1$1 ==.
                           5750 ;	apps/ydrip/ydrip.c:623: if (strcmp(strMMM,"Jun") == 0)	tVector->iv[5] = '6';
   1D8C 78 BB              5751 	mov	r0,#_strcmp_PARM_2
   1D8E 74 44              5752 	mov	a,#__str_52
   1D90 F2                 5753 	movx	@r0,a
   1D91 08                 5754 	inc	r0
   1D92 74 66              5755 	mov	a,#(__str_52 >> 8)
   1D94 F2                 5756 	movx	@r0,a
   1D95 08                 5757 	inc	r0
   1D96 74 80              5758 	mov	a,#0x80
   1D98 F2                 5759 	movx	@r0,a
   1D99 90 F2 DA           5760 	mov	dptr,#_getTimeBytes_strMMM_1_1
   1D9C 75 F0 00           5761 	mov	b,#0x00
   1D9F C0 07              5762 	push	ar7
   1DA1 C0 06              5763 	push	ar6
   1DA3 12 4A B4           5764 	lcall	_strcmp
   1DA6 E5 82              5765 	mov	a,dpl
   1DA8 85 83 F0           5766 	mov	b,dph
   1DAB D0 06              5767 	pop	ar6
   1DAD D0 07              5768 	pop	ar7
   1DAF 45 F0              5769 	orl	a,b
   1DB1 70 10              5770 	jnz	00120$
   1DB3 78 45              5771 	mov	r0,#_getTimeBytes_tVector_1_1
   1DB5 E2                 5772 	movx	a,@r0
   1DB6 24 05              5773 	add	a,#0x05
   1DB8 F5 82              5774 	mov	dpl,a
   1DBA 08                 5775 	inc	r0
   1DBB E2                 5776 	movx	a,@r0
   1DBC 34 00              5777 	addc	a,#0x00
   1DBE F5 83              5778 	mov	dph,a
   1DC0 74 36              5779 	mov	a,#0x36
   1DC2 F0                 5780 	movx	@dptr,a
   1DC3                    5781 00120$:
                    1794   5782 	C$ydrip.c$624$1$1 ==.
                           5783 ;	apps/ydrip/ydrip.c:624: if (strcmp(strMMM,"Jul") == 0)	tVector->iv[5] = '7';
   1DC3 78 BB              5784 	mov	r0,#_strcmp_PARM_2
   1DC5 74 48              5785 	mov	a,#__str_53
   1DC7 F2                 5786 	movx	@r0,a
   1DC8 08                 5787 	inc	r0
   1DC9 74 66              5788 	mov	a,#(__str_53 >> 8)
   1DCB F2                 5789 	movx	@r0,a
   1DCC 08                 5790 	inc	r0
   1DCD 74 80              5791 	mov	a,#0x80
   1DCF F2                 5792 	movx	@r0,a
   1DD0 90 F2 DA           5793 	mov	dptr,#_getTimeBytes_strMMM_1_1
   1DD3 75 F0 00           5794 	mov	b,#0x00
   1DD6 C0 07              5795 	push	ar7
   1DD8 C0 06              5796 	push	ar6
   1DDA 12 4A B4           5797 	lcall	_strcmp
   1DDD E5 82              5798 	mov	a,dpl
   1DDF 85 83 F0           5799 	mov	b,dph
   1DE2 D0 06              5800 	pop	ar6
   1DE4 D0 07              5801 	pop	ar7
   1DE6 45 F0              5802 	orl	a,b
   1DE8 70 10              5803 	jnz	00122$
   1DEA 78 45              5804 	mov	r0,#_getTimeBytes_tVector_1_1
   1DEC E2                 5805 	movx	a,@r0
   1DED 24 05              5806 	add	a,#0x05
   1DEF F5 82              5807 	mov	dpl,a
   1DF1 08                 5808 	inc	r0
   1DF2 E2                 5809 	movx	a,@r0
   1DF3 34 00              5810 	addc	a,#0x00
   1DF5 F5 83              5811 	mov	dph,a
   1DF7 74 37              5812 	mov	a,#0x37
   1DF9 F0                 5813 	movx	@dptr,a
   1DFA                    5814 00122$:
                    17CB   5815 	C$ydrip.c$625$1$1 ==.
                           5816 ;	apps/ydrip/ydrip.c:625: if (strcmp(strMMM,"Aug") == 0)	tVector->iv[5] = '8';
   1DFA 78 BB              5817 	mov	r0,#_strcmp_PARM_2
   1DFC 74 4C              5818 	mov	a,#__str_54
   1DFE F2                 5819 	movx	@r0,a
   1DFF 08                 5820 	inc	r0
   1E00 74 66              5821 	mov	a,#(__str_54 >> 8)
   1E02 F2                 5822 	movx	@r0,a
   1E03 08                 5823 	inc	r0
   1E04 74 80              5824 	mov	a,#0x80
   1E06 F2                 5825 	movx	@r0,a
   1E07 90 F2 DA           5826 	mov	dptr,#_getTimeBytes_strMMM_1_1
   1E0A 75 F0 00           5827 	mov	b,#0x00
   1E0D C0 07              5828 	push	ar7
   1E0F C0 06              5829 	push	ar6
   1E11 12 4A B4           5830 	lcall	_strcmp
   1E14 E5 82              5831 	mov	a,dpl
   1E16 85 83 F0           5832 	mov	b,dph
   1E19 D0 06              5833 	pop	ar6
   1E1B D0 07              5834 	pop	ar7
   1E1D 45 F0              5835 	orl	a,b
   1E1F 70 10              5836 	jnz	00124$
   1E21 78 45              5837 	mov	r0,#_getTimeBytes_tVector_1_1
   1E23 E2                 5838 	movx	a,@r0
   1E24 24 05              5839 	add	a,#0x05
   1E26 F5 82              5840 	mov	dpl,a
   1E28 08                 5841 	inc	r0
   1E29 E2                 5842 	movx	a,@r0
   1E2A 34 00              5843 	addc	a,#0x00
   1E2C F5 83              5844 	mov	dph,a
   1E2E 74 38              5845 	mov	a,#0x38
   1E30 F0                 5846 	movx	@dptr,a
   1E31                    5847 00124$:
                    1802   5848 	C$ydrip.c$626$1$1 ==.
                           5849 ;	apps/ydrip/ydrip.c:626: if (strcmp(strMMM,"Sep") == 0)	tVector->iv[5] = '9';
   1E31 78 BB              5850 	mov	r0,#_strcmp_PARM_2
   1E33 74 50              5851 	mov	a,#__str_55
   1E35 F2                 5852 	movx	@r0,a
   1E36 08                 5853 	inc	r0
   1E37 74 66              5854 	mov	a,#(__str_55 >> 8)
   1E39 F2                 5855 	movx	@r0,a
   1E3A 08                 5856 	inc	r0
   1E3B 74 80              5857 	mov	a,#0x80
   1E3D F2                 5858 	movx	@r0,a
   1E3E 90 F2 DA           5859 	mov	dptr,#_getTimeBytes_strMMM_1_1
   1E41 75 F0 00           5860 	mov	b,#0x00
   1E44 C0 07              5861 	push	ar7
   1E46 C0 06              5862 	push	ar6
   1E48 12 4A B4           5863 	lcall	_strcmp
   1E4B E5 82              5864 	mov	a,dpl
   1E4D 85 83 F0           5865 	mov	b,dph
   1E50 D0 06              5866 	pop	ar6
   1E52 D0 07              5867 	pop	ar7
   1E54 45 F0              5868 	orl	a,b
   1E56 70 10              5869 	jnz	00126$
   1E58 78 45              5870 	mov	r0,#_getTimeBytes_tVector_1_1
   1E5A E2                 5871 	movx	a,@r0
   1E5B 24 05              5872 	add	a,#0x05
   1E5D F5 82              5873 	mov	dpl,a
   1E5F 08                 5874 	inc	r0
   1E60 E2                 5875 	movx	a,@r0
   1E61 34 00              5876 	addc	a,#0x00
   1E63 F5 83              5877 	mov	dph,a
   1E65 74 39              5878 	mov	a,#0x39
   1E67 F0                 5879 	movx	@dptr,a
   1E68                    5880 00126$:
                    1839   5881 	C$ydrip.c$627$1$1 ==.
                           5882 ;	apps/ydrip/ydrip.c:627: if (strcmp(strMMM,"Oct") == 0)	tVector->iv[5] = '0';
   1E68 78 BB              5883 	mov	r0,#_strcmp_PARM_2
   1E6A 74 54              5884 	mov	a,#__str_56
   1E6C F2                 5885 	movx	@r0,a
   1E6D 08                 5886 	inc	r0
   1E6E 74 66              5887 	mov	a,#(__str_56 >> 8)
   1E70 F2                 5888 	movx	@r0,a
   1E71 08                 5889 	inc	r0
   1E72 74 80              5890 	mov	a,#0x80
   1E74 F2                 5891 	movx	@r0,a
   1E75 90 F2 DA           5892 	mov	dptr,#_getTimeBytes_strMMM_1_1
   1E78 75 F0 00           5893 	mov	b,#0x00
   1E7B C0 07              5894 	push	ar7
   1E7D C0 06              5895 	push	ar6
   1E7F 12 4A B4           5896 	lcall	_strcmp
   1E82 E5 82              5897 	mov	a,dpl
   1E84 85 83 F0           5898 	mov	b,dph
   1E87 D0 06              5899 	pop	ar6
   1E89 D0 07              5900 	pop	ar7
   1E8B 45 F0              5901 	orl	a,b
   1E8D 70 10              5902 	jnz	00128$
   1E8F 78 45              5903 	mov	r0,#_getTimeBytes_tVector_1_1
   1E91 E2                 5904 	movx	a,@r0
   1E92 24 05              5905 	add	a,#0x05
   1E94 F5 82              5906 	mov	dpl,a
   1E96 08                 5907 	inc	r0
   1E97 E2                 5908 	movx	a,@r0
   1E98 34 00              5909 	addc	a,#0x00
   1E9A F5 83              5910 	mov	dph,a
   1E9C 74 30              5911 	mov	a,#0x30
   1E9E F0                 5912 	movx	@dptr,a
   1E9F                    5913 00128$:
                    1870   5914 	C$ydrip.c$629$1$1 ==.
                           5915 ;	apps/ydrip/ydrip.c:629: if ((strcmp(strMMM,"Oct") == 0) ||(strcmp(strMMM,"Nov") == 0) || (strcmp(strMMM,"Dec")) == 0)	tVector->iv[4] = '1';
   1E9F 78 BB              5916 	mov	r0,#_strcmp_PARM_2
   1EA1 74 54              5917 	mov	a,#__str_56
   1EA3 F2                 5918 	movx	@r0,a
   1EA4 08                 5919 	inc	r0
   1EA5 74 66              5920 	mov	a,#(__str_56 >> 8)
   1EA7 F2                 5921 	movx	@r0,a
   1EA8 08                 5922 	inc	r0
   1EA9 74 80              5923 	mov	a,#0x80
   1EAB F2                 5924 	movx	@r0,a
   1EAC 90 F2 DA           5925 	mov	dptr,#_getTimeBytes_strMMM_1_1
   1EAF 75 F0 00           5926 	mov	b,#0x00
   1EB2 C0 07              5927 	push	ar7
   1EB4 C0 06              5928 	push	ar6
   1EB6 12 4A B4           5929 	lcall	_strcmp
   1EB9 E5 82              5930 	mov	a,dpl
   1EBB 85 83 F0           5931 	mov	b,dph
   1EBE D0 06              5932 	pop	ar6
   1EC0 D0 07              5933 	pop	ar7
   1EC2 45 F0              5934 	orl	a,b
   1EC4 60 4E              5935 	jz	00129$
   1EC6 78 BB              5936 	mov	r0,#_strcmp_PARM_2
   1EC8 74 58              5937 	mov	a,#__str_57
   1ECA F2                 5938 	movx	@r0,a
   1ECB 08                 5939 	inc	r0
   1ECC 74 66              5940 	mov	a,#(__str_57 >> 8)
   1ECE F2                 5941 	movx	@r0,a
   1ECF 08                 5942 	inc	r0
   1ED0 74 80              5943 	mov	a,#0x80
   1ED2 F2                 5944 	movx	@r0,a
   1ED3 90 F2 DA           5945 	mov	dptr,#_getTimeBytes_strMMM_1_1
   1ED6 75 F0 00           5946 	mov	b,#0x00
   1ED9 C0 07              5947 	push	ar7
   1EDB C0 06              5948 	push	ar6
   1EDD 12 4A B4           5949 	lcall	_strcmp
   1EE0 E5 82              5950 	mov	a,dpl
   1EE2 85 83 F0           5951 	mov	b,dph
   1EE5 D0 06              5952 	pop	ar6
   1EE7 D0 07              5953 	pop	ar7
   1EE9 45 F0              5954 	orl	a,b
   1EEB 60 27              5955 	jz	00129$
   1EED 78 BB              5956 	mov	r0,#_strcmp_PARM_2
   1EEF 74 5C              5957 	mov	a,#__str_58
   1EF1 F2                 5958 	movx	@r0,a
   1EF2 08                 5959 	inc	r0
   1EF3 74 66              5960 	mov	a,#(__str_58 >> 8)
   1EF5 F2                 5961 	movx	@r0,a
   1EF6 08                 5962 	inc	r0
   1EF7 74 80              5963 	mov	a,#0x80
   1EF9 F2                 5964 	movx	@r0,a
   1EFA 90 F2 DA           5965 	mov	dptr,#_getTimeBytes_strMMM_1_1
   1EFD 75 F0 00           5966 	mov	b,#0x00
   1F00 C0 07              5967 	push	ar7
   1F02 C0 06              5968 	push	ar6
   1F04 12 4A B4           5969 	lcall	_strcmp
   1F07 E5 82              5970 	mov	a,dpl
   1F09 85 83 F0           5971 	mov	b,dph
   1F0C D0 06              5972 	pop	ar6
   1F0E D0 07              5973 	pop	ar7
   1F10 45 F0              5974 	orl	a,b
   1F12 70 07              5975 	jnz	00130$
   1F14                    5976 00129$:
   1F14 8E 82              5977 	mov	dpl,r6
   1F16 8F 83              5978 	mov	dph,r7
   1F18 74 31              5979 	mov	a,#0x31
   1F1A F0                 5980 	movx	@dptr,a
   1F1B                    5981 00130$:
                    18EC   5982 	C$ydrip.c$630$1$1 ==.
                           5983 ;	apps/ydrip/ydrip.c:630: if (strcmp(strMMM,"Nov") == 0)	tVector->iv[5] = '1';
   1F1B 78 BB              5984 	mov	r0,#_strcmp_PARM_2
   1F1D 74 58              5985 	mov	a,#__str_57
   1F1F F2                 5986 	movx	@r0,a
   1F20 08                 5987 	inc	r0
   1F21 74 66              5988 	mov	a,#(__str_57 >> 8)
   1F23 F2                 5989 	movx	@r0,a
   1F24 08                 5990 	inc	r0
   1F25 74 80              5991 	mov	a,#0x80
   1F27 F2                 5992 	movx	@r0,a
   1F28 90 F2 DA           5993 	mov	dptr,#_getTimeBytes_strMMM_1_1
   1F2B 75 F0 00           5994 	mov	b,#0x00
   1F2E 12 4A B4           5995 	lcall	_strcmp
   1F31 E5 82              5996 	mov	a,dpl
   1F33 85 83 F0           5997 	mov	b,dph
   1F36 45 F0              5998 	orl	a,b
   1F38 70 10              5999 	jnz	00134$
   1F3A 78 45              6000 	mov	r0,#_getTimeBytes_tVector_1_1
   1F3C E2                 6001 	movx	a,@r0
   1F3D 24 05              6002 	add	a,#0x05
   1F3F F5 82              6003 	mov	dpl,a
   1F41 08                 6004 	inc	r0
   1F42 E2                 6005 	movx	a,@r0
   1F43 34 00              6006 	addc	a,#0x00
   1F45 F5 83              6007 	mov	dph,a
   1F47 74 31              6008 	mov	a,#0x31
   1F49 F0                 6009 	movx	@dptr,a
   1F4A                    6010 00134$:
                    191B   6011 	C$ydrip.c$631$1$1 ==.
                           6012 ;	apps/ydrip/ydrip.c:631: if (strcmp(strMMM,"Dec") == 0)	tVector->iv[5] = '2';
   1F4A 78 BB              6013 	mov	r0,#_strcmp_PARM_2
   1F4C 74 5C              6014 	mov	a,#__str_58
   1F4E F2                 6015 	movx	@r0,a
   1F4F 08                 6016 	inc	r0
   1F50 74 66              6017 	mov	a,#(__str_58 >> 8)
   1F52 F2                 6018 	movx	@r0,a
   1F53 08                 6019 	inc	r0
   1F54 74 80              6020 	mov	a,#0x80
   1F56 F2                 6021 	movx	@r0,a
   1F57 90 F2 DA           6022 	mov	dptr,#_getTimeBytes_strMMM_1_1
   1F5A 75 F0 00           6023 	mov	b,#0x00
   1F5D 12 4A B4           6024 	lcall	_strcmp
   1F60 E5 82              6025 	mov	a,dpl
   1F62 85 83 F0           6026 	mov	b,dph
   1F65 45 F0              6027 	orl	a,b
   1F67 70 10              6028 	jnz	00137$
   1F69 78 45              6029 	mov	r0,#_getTimeBytes_tVector_1_1
   1F6B E2                 6030 	movx	a,@r0
   1F6C 24 05              6031 	add	a,#0x05
   1F6E F5 82              6032 	mov	dpl,a
   1F70 08                 6033 	inc	r0
   1F71 E2                 6034 	movx	a,@r0
   1F72 34 00              6035 	addc	a,#0x00
   1F74 F5 83              6036 	mov	dph,a
   1F76 74 32              6037 	mov	a,#0x32
   1F78 F0                 6038 	movx	@dptr,a
   1F79                    6039 00137$:
                    194A   6040 	C$ydrip.c$632$1$1 ==.
                    194A   6041 	XG$getTimeBytes$0$0 ==.
   1F79 22                 6042 	ret
                           6043 ;------------------------------------------------------------
                           6044 ;Allocation info for local variables in function 'ESPsleep'
                           6045 ;------------------------------------------------------------
                    194B   6046 	G$ESPsleep$0$0 ==.
                    194B   6047 	C$ydrip.c$635$1$1 ==.
                           6048 ;	apps/ydrip/ydrip.c:635: void ESPsleep () {
                           6049 ;	-----------------------------------------
                           6050 ;	 function ESPsleep
                           6051 ;	-----------------------------------------
   1F7A                    6052 _ESPsleep:
                    194B   6053 	C$ydrip.c$636$1$1 ==.
                           6054 ;	apps/ydrip/ydrip.c:636: printf("sk:close()\r\n");									// Close the TCP connection	- Response should be CLOSE OK
   1F7A 74 60              6055 	mov	a,#__str_59
   1F7C C0 E0              6056 	push	acc
   1F7E 74 66              6057 	mov	a,#(__str_59 >> 8)
   1F80 C0 E0              6058 	push	acc
   1F82 74 80              6059 	mov	a,#0x80
   1F84 C0 E0              6060 	push	acc
   1F86 12 50 CA           6061 	lcall	_printf
   1F89 15 81              6062 	dec	sp
   1F8B 15 81              6063 	dec	sp
   1F8D 15 81              6064 	dec	sp
                    1960   6065 	C$ydrip.c$637$1$1 ==.
                           6066 ;	apps/ydrip/ydrip.c:637: delayMs(defaultWaitTime);
   1F8F 90 F8 74           6067 	mov	dptr,#_defaultWaitTime
   1F92 E0                 6068 	movx	a,@dptr
   1F93 FC                 6069 	mov	r4,a
   1F94 A3                 6070 	inc	dptr
   1F95 E0                 6071 	movx	a,@dptr
   1F96 FD                 6072 	mov	r5,a
   1F97 A3                 6073 	inc	dptr
   1F98 E0                 6074 	movx	a,@dptr
   1F99 A3                 6075 	inc	dptr
   1F9A E0                 6076 	movx	a,@dptr
   1F9B 8C 82              6077 	mov	dpl,r4
   1F9D 8D 83              6078 	mov	dph,r5
   1F9F 12 4C EF           6079 	lcall	_delayMs
                    1973   6080 	C$ydrip.c$638$1$1 ==.
                           6081 ;	apps/ydrip/ydrip.c:638: printf("node.dsleep(270000000)\r\n");							// Deep Sleep 4.5 minutes (270 Seconds) - probably tweak this a bit
   1FA2 74 6D              6082 	mov	a,#__str_60
   1FA4 C0 E0              6083 	push	acc
   1FA6 74 66              6084 	mov	a,#(__str_60 >> 8)
   1FA8 C0 E0              6085 	push	acc
   1FAA 74 80              6086 	mov	a,#0x80
   1FAC C0 E0              6087 	push	acc
   1FAE 12 50 CA           6088 	lcall	_printf
   1FB1 15 81              6089 	dec	sp
   1FB3 15 81              6090 	dec	sp
   1FB5 15 81              6091 	dec	sp
                    1988   6092 	C$ydrip.c$640$1$1 ==.
                           6093 ;	apps/ydrip/ydrip.c:640: delayMs(defaultWaitTime);
   1FB7 90 F8 74           6094 	mov	dptr,#_defaultWaitTime
   1FBA E0                 6095 	movx	a,@dptr
   1FBB FC                 6096 	mov	r4,a
   1FBC A3                 6097 	inc	dptr
   1FBD E0                 6098 	movx	a,@dptr
   1FBE FD                 6099 	mov	r5,a
   1FBF A3                 6100 	inc	dptr
   1FC0 E0                 6101 	movx	a,@dptr
   1FC1 A3                 6102 	inc	dptr
   1FC2 E0                 6103 	movx	a,@dptr
   1FC3 8C 82              6104 	mov	dpl,r4
   1FC5 8D 83              6105 	mov	dph,r5
   1FC7 12 4C EF           6106 	lcall	_delayMs
                    199B   6107 	C$ydrip.c$641$1$1 ==.
                    199B   6108 	XG$ESPsleep$0$0 ==.
   1FCA 22                 6109 	ret
                           6110 ;------------------------------------------------------------
                           6111 ;Allocation info for local variables in function 'print_packet'
                           6112 ;------------------------------------------------------------
                           6113 ;sloc0                     Allocated with name '_print_packet_sloc0_1_0'
                           6114 ;sloc1                     Allocated with name '_print_packet_sloc1_1_0'
                           6115 ;sloc2                     Allocated with name '_print_packet_sloc2_1_0'
                           6116 ;transID                   Allocated with name '_print_packet_transID_1_1'
                           6117 ;iv                        Allocated with name '_print_packet_iv_1_1'
                           6118 ;i                         Allocated with name '_print_packet_i_1_1'
                           6119 ;sprintfBuffer             Allocated with name '_print_packet_sprintfBuffer_1_1'
                           6120 ;AESBuffer                 Allocated with name '_print_packet_AESBuffer_1_1'
                           6121 ;prtlen                    Allocated with name '_print_packet_prtlen_1_1'
                           6122 ;getTimeResponse           Allocated with name '_print_packet_getTimeResponse_1_1'
                           6123 ;------------------------------------------------------------
                    199C   6124 	G$print_packet$0$0 ==.
                    199C   6125 	C$ydrip.c$644$1$1 ==.
                           6126 ;	apps/ydrip/ydrip.c:644: XDATA void print_packet(Dexcom_packet* pPkt) {
                           6127 ;	-----------------------------------------
                           6128 ;	 function print_packet
                           6129 ;	-----------------------------------------
   1FCB                    6130 _print_packet:
   1FCB AF 83              6131 	mov	r7,dph
   1FCD E5 82              6132 	mov	a,dpl
   1FCF 78 47              6133 	mov	r0,#_print_packet_pPkt_1_1
   1FD1 F2                 6134 	movx	@r0,a
   1FD2 08                 6135 	inc	r0
   1FD3 EF                 6136 	mov	a,r7
   1FD4 F2                 6137 	movx	@r0,a
                    19A6   6138 	C$ydrip.c$645$1$1 ==.
                           6139 ;	apps/ydrip/ydrip.c:645: XDATA char transID[] = "BLANK"; 
   1FD5 90 F2 DE           6140 	mov	dptr,#_print_packet_transID_1_1
   1FD8 74 42              6141 	mov	a,#0x42
   1FDA F0                 6142 	movx	@dptr,a
   1FDB 90 F2 DF           6143 	mov	dptr,#(_print_packet_transID_1_1 + 0x0001)
   1FDE 74 4C              6144 	mov	a,#0x4C
   1FE0 F0                 6145 	movx	@dptr,a
   1FE1 90 F2 E0           6146 	mov	dptr,#(_print_packet_transID_1_1 + 0x0002)
   1FE4 74 41              6147 	mov	a,#0x41
   1FE6 F0                 6148 	movx	@dptr,a
   1FE7 90 F2 E1           6149 	mov	dptr,#(_print_packet_transID_1_1 + 0x0003)
   1FEA 74 4E              6150 	mov	a,#0x4E
   1FEC F0                 6151 	movx	@dptr,a
   1FED 90 F2 E2           6152 	mov	dptr,#(_print_packet_transID_1_1 + 0x0004)
   1FF0 74 4B              6153 	mov	a,#0x4B
   1FF2 F0                 6154 	movx	@dptr,a
   1FF3 90 F2 E3           6155 	mov	dptr,#(_print_packet_transID_1_1 + 0x0005)
                    19C7   6156 	C$ydrip.c$652$1$1 ==.
                           6157 ;	apps/ydrip/ydrip.c:652: XDATA uint8_t iv[16]  = { 0x00, 0x01, 0x02, 0x03, 0x04, 0x05, 0x06, 0x07, 0x08, 0x09, 0x0a, 0x0b, 0x0c, 0x0d, 0x0e, 0x0f };
   1FF6 E4                 6158 	clr	a
   1FF7 F0                 6159 	movx	@dptr,a
   1FF8 90 F2 E4           6160 	mov	dptr,#_print_packet_iv_1_1
   1FFB F0                 6161 	movx	@dptr,a
   1FFC 90 F2 E5           6162 	mov	dptr,#(_print_packet_iv_1_1 + 0x0001)
   1FFF 74 01              6163 	mov	a,#0x01
   2001 F0                 6164 	movx	@dptr,a
   2002 90 F2 E6           6165 	mov	dptr,#(_print_packet_iv_1_1 + 0x0002)
   2005 74 02              6166 	mov	a,#0x02
   2007 F0                 6167 	movx	@dptr,a
   2008 90 F2 E7           6168 	mov	dptr,#(_print_packet_iv_1_1 + 0x0003)
   200B 74 03              6169 	mov	a,#0x03
   200D F0                 6170 	movx	@dptr,a
   200E 90 F2 E8           6171 	mov	dptr,#(_print_packet_iv_1_1 + 0x0004)
   2011 74 04              6172 	mov	a,#0x04
   2013 F0                 6173 	movx	@dptr,a
   2014 90 F2 E9           6174 	mov	dptr,#(_print_packet_iv_1_1 + 0x0005)
   2017 74 05              6175 	mov	a,#0x05
   2019 F0                 6176 	movx	@dptr,a
   201A 90 F2 EA           6177 	mov	dptr,#(_print_packet_iv_1_1 + 0x0006)
   201D 74 06              6178 	mov	a,#0x06
   201F F0                 6179 	movx	@dptr,a
   2020 90 F2 EB           6180 	mov	dptr,#(_print_packet_iv_1_1 + 0x0007)
   2023 74 07              6181 	mov	a,#0x07
   2025 F0                 6182 	movx	@dptr,a
   2026 90 F2 EC           6183 	mov	dptr,#(_print_packet_iv_1_1 + 0x0008)
   2029 74 08              6184 	mov	a,#0x08
   202B F0                 6185 	movx	@dptr,a
   202C 90 F2 ED           6186 	mov	dptr,#(_print_packet_iv_1_1 + 0x0009)
   202F 74 09              6187 	mov	a,#0x09
   2031 F0                 6188 	movx	@dptr,a
   2032 90 F2 EE           6189 	mov	dptr,#(_print_packet_iv_1_1 + 0x000a)
   2035 74 0A              6190 	mov	a,#0x0A
   2037 F0                 6191 	movx	@dptr,a
   2038 90 F2 EF           6192 	mov	dptr,#(_print_packet_iv_1_1 + 0x000b)
   203B 74 0B              6193 	mov	a,#0x0B
   203D F0                 6194 	movx	@dptr,a
   203E 90 F2 F0           6195 	mov	dptr,#(_print_packet_iv_1_1 + 0x000c)
   2041 74 0C              6196 	mov	a,#0x0C
   2043 F0                 6197 	movx	@dptr,a
   2044 90 F2 F1           6198 	mov	dptr,#(_print_packet_iv_1_1 + 0x000d)
   2047 74 0D              6199 	mov	a,#0x0D
   2049 F0                 6200 	movx	@dptr,a
   204A 90 F2 F2           6201 	mov	dptr,#(_print_packet_iv_1_1 + 0x000e)
   204D 74 0E              6202 	mov	a,#0x0E
   204F F0                 6203 	movx	@dptr,a
   2050 90 F2 F3           6204 	mov	dptr,#(_print_packet_iv_1_1 + 0x000f)
   2053 74 0F              6205 	mov	a,#0x0F
   2055 F0                 6206 	movx	@dptr,a
                    1A27   6207 	C$ydrip.c$661$1$1 ==.
                           6208 ;	apps/ydrip/ydrip.c:661: uartEnable();
   2056 12 06 5C           6209 	lcall	_uartEnable
                    1A2A   6210 	C$ydrip.c$664$2$2 ==.
                           6211 ;	apps/ydrip/ydrip.c:664: LED_YELLOW(0);
   2059 AD FF              6212 	mov	r5,_P2DIR
   205B 53 05 FB           6213 	anl	ar5,#0xFB
   205E 8D FF              6214 	mov	_P2DIR,r5
                    1A31   6215 	C$ydrip.c$665$2$3 ==.
                           6216 ;	apps/ydrip/ydrip.c:665: LED_RED(0);
   2060 AD FF              6217 	mov	r5,_P2DIR
   2062 53 05 FD           6218 	anl	ar5,#0xFD
   2065 8D FF              6219 	mov	_P2DIR,r5
                    1A38   6220 	C$ydrip.c$667$1$1 ==.
                           6221 ;	apps/ydrip/ydrip.c:667: getTimeBytes(&getTimeResponse);							//	Connect to google and get the time
   2067 90 F3 74           6222 	mov	dptr,#_print_packet_getTimeResponse_1_1
   206A 12 1A D4           6223 	lcall	_getTimeBytes
                    1A3E   6224 	C$ydrip.c$668$1$1 ==.
                           6225 ;	apps/ydrip/ydrip.c:668: strcpy(iv, getTimeResponse.iv);							//	and use this to populate the Initialisation Vector
   206D 78 5E              6226 	mov	r0,#_strcpy_PARM_2
   206F 74 74              6227 	mov	a,#_print_packet_getTimeResponse_1_1
   2071 F2                 6228 	movx	@r0,a
   2072 08                 6229 	inc	r0
   2073 74 F3              6230 	mov	a,#(_print_packet_getTimeResponse_1_1 >> 8)
   2075 F2                 6231 	movx	@r0,a
   2076 08                 6232 	inc	r0
   2077 E4                 6233 	clr	a
   2078 F2                 6234 	movx	@r0,a
   2079 90 F2 E4           6235 	mov	dptr,#_print_packet_iv_1_1
   207C 75 F0 00           6236 	mov	b,#0x00
   207F 12 31 E6           6237 	lcall	_strcpy
                    1A53   6238 	C$ydrip.c$669$1$1 ==.
                           6239 ;	apps/ydrip/ydrip.c:669: if (debug_mode) printf("-- **DEBUG** iv is %s\r\n", iv);
   2082 30 03 20           6240 	jnb	_debug_mode,00102$
   2085 74 E4              6241 	mov	a,#_print_packet_iv_1_1
   2087 C0 E0              6242 	push	acc
   2089 74 F2              6243 	mov	a,#(_print_packet_iv_1_1 >> 8)
   208B C0 E0              6244 	push	acc
   208D E4                 6245 	clr	a
   208E C0 E0              6246 	push	acc
   2090 74 86              6247 	mov	a,#__str_62
   2092 C0 E0              6248 	push	acc
   2094 74 66              6249 	mov	a,#(__str_62 >> 8)
   2096 C0 E0              6250 	push	acc
   2098 74 80              6251 	mov	a,#0x80
   209A C0 E0              6252 	push	acc
   209C 12 50 CA           6253 	lcall	_printf
   209F E5 81              6254 	mov	a,sp
   20A1 24 FA              6255 	add	a,#0xfa
   20A3 F5 81              6256 	mov	sp,a
   20A5                    6257 00102$:
                    1A76   6258 	C$ydrip.c$671$1$1 ==.
                           6259 ;	apps/ydrip/ydrip.c:671: iv[14]=pPkt->txId;										//	Randomise the IV further by updating this spare byte with the packet sequence number
   20A5 78 47              6260 	mov	r0,#_print_packet_pPkt_1_1
   20A7 E2                 6261 	movx	a,@r0
   20A8 24 0B              6262 	add	a,#0x0B
   20AA FC                 6263 	mov	r4,a
   20AB 08                 6264 	inc	r0
   20AC E2                 6265 	movx	a,@r0
   20AD 34 00              6266 	addc	a,#0x00
   20AF FD                 6267 	mov	r5,a
   20B0 8C 82              6268 	mov	dpl,r4
   20B2 8D 83              6269 	mov	dph,r5
   20B4 E0                 6270 	movx	a,@dptr
   20B5 90 F2 F2           6271 	mov	dptr,#(_print_packet_iv_1_1 + 0x000e)
   20B8 F0                 6272 	movx	@dptr,a
                    1A8A   6273 	C$ydrip.c$672$1$1 ==.
                           6274 ;	apps/ydrip/ydrip.c:672: iv[15]=pPkt->checksum;									//	Randomise the IV further by updating this other spare byte with the packet checksum
   20B9 78 47              6275 	mov	r0,#_print_packet_pPkt_1_1
   20BB E2                 6276 	movx	a,@r0
   20BC 24 12              6277 	add	a,#0x12
   20BE F5 82              6278 	mov	dpl,a
   20C0 08                 6279 	inc	r0
   20C1 E2                 6280 	movx	a,@r0
   20C2 34 00              6281 	addc	a,#0x00
   20C4 F5 83              6282 	mov	dph,a
   20C6 E0                 6283 	movx	a,@dptr
   20C7 90 F2 F3           6284 	mov	dptr,#(_print_packet_iv_1_1 + 0x000f)
   20CA F0                 6285 	movx	@dptr,a
                    1A9C   6286 	C$ydrip.c$674$1$1 ==.
                           6287 ;	apps/ydrip/ydrip.c:674: if (wifiConnect()) {		// Establish a connection to the Dexie server
   20CB C0 05              6288 	push	ar5
   20CD C0 04              6289 	push	ar4
   20CF 12 17 2D           6290 	lcall	_wifiConnect
   20D2 D0 04              6291 	pop	ar4
   20D4 D0 05              6292 	pop	ar5
   20D6 40 03              6293 	jc	00135$
   20D8 02 23 81           6294 	ljmp	00107$
   20DB                    6295 00135$:
                    1AAC   6296 	C$ydrip.c$675$3$5 ==.
                           6297 ;	apps/ydrip/ydrip.c:675: LED_RED(1);
   20DB 43 FF 02           6298 	orl	_P2DIR,#0x02
                    1AAF   6299 	C$ydrip.c$676$2$4 ==.
                           6300 ;	apps/ydrip/ydrip.c:676: dexcom_src_to_ascii(pPkt->src_addr, transID);		// Get a human-readable version of the Dexcom Transmitter ID
   20DE 78 47              6301 	mov	r0,#_print_packet_pPkt_1_1
   20E0 E2                 6302 	movx	a,@r0
   20E1 24 05              6303 	add	a,#0x05
   20E3 F5 82              6304 	mov	dpl,a
   20E5 08                 6305 	inc	r0
   20E6 E2                 6306 	movx	a,@r0
   20E7 34 00              6307 	addc	a,#0x00
   20E9 F5 83              6308 	mov	dph,a
   20EB E0                 6309 	movx	a,@dptr
   20EC FA                 6310 	mov	r2,a
   20ED A3                 6311 	inc	dptr
   20EE E0                 6312 	movx	a,@dptr
   20EF FB                 6313 	mov	r3,a
   20F0 A3                 6314 	inc	dptr
   20F1 E0                 6315 	movx	a,@dptr
   20F2 FE                 6316 	mov	r6,a
   20F3 A3                 6317 	inc	dptr
   20F4 E0                 6318 	movx	a,@dptr
   20F5 FF                 6319 	mov	r7,a
   20F6 90 F0 FF           6320 	mov	dptr,#_dexcom_src_to_ascii_PARM_2
   20F9 74 DE              6321 	mov	a,#_print_packet_transID_1_1
   20FB F0                 6322 	movx	@dptr,a
   20FC A3                 6323 	inc	dptr
   20FD 74 F2              6324 	mov	a,#(_print_packet_transID_1_1 >> 8)
   20FF F0                 6325 	movx	@dptr,a
   2100 8A 82              6326 	mov	dpl,r2
   2102 8B 83              6327 	mov	dph,r3
   2104 8E F0              6328 	mov	b,r6
   2106 EF                 6329 	mov	a,r7
   2107 C0 05              6330 	push	ar5
   2109 C0 04              6331 	push	ar4
   210B 12 08 46           6332 	lcall	_dexcom_src_to_ascii
   210E D0 04              6333 	pop	ar4
   2110 D0 05              6334 	pop	ar5
                    1AE3   6335 	C$ydrip.c$684$2$4 ==.
                           6336 ;	apps/ydrip/ydrip.c:684: (((pPkt->RSSI)/2)-73));							//		Received Signal Strength Indicator
   2112 78 47              6337 	mov	r0,#_print_packet_pPkt_1_1
   2114 E2                 6338 	movx	a,@r0
   2115 24 13              6339 	add	a,#0x13
   2117 F5 82              6340 	mov	dpl,a
   2119 08                 6341 	inc	r0
   211A E2                 6342 	movx	a,@r0
   211B 34 00              6343 	addc	a,#0x00
   211D F5 83              6344 	mov	dph,a
   211F E0                 6345 	movx	a,@dptr
   2120 FF                 6346 	mov	r7,a
   2121 C2 D5              6347 	clr	F0
   2123 75 F0 02           6348 	mov	b,#0x02
   2126 EF                 6349 	mov	a,r7
   2127 30 E7 04           6350 	jnb	acc.7,00136$
   212A B2 D5              6351 	cpl	F0
   212C F4                 6352 	cpl	a
   212D 04                 6353 	inc	a
   212E                    6354 00136$:
   212E 84                 6355 	div	ab
   212F 30 D5 02           6356 	jnb	F0,00137$
   2132 F4                 6357 	cpl	a
   2133 04                 6358 	inc	a
   2134                    6359 00137$:
   2134 C0 E0              6360 	push	acc
   2136 A2 D5              6361 	mov	c,F0
   2138 95 E0              6362 	subb	a,acc
   213A F5 F0              6363 	mov	b,a
   213C D0 E0              6364 	pop	acc
   213E 24 B7              6365 	add	a,#0xB7
   2140 F5 28              6366 	mov	_print_packet_sloc1_1_0,a
   2142 E5 F0              6367 	mov	a,b
   2144 34 FF              6368 	addc	a,#0xFF
   2146 F5 29              6369 	mov	(_print_packet_sloc1_1_0 + 1),a
                    1B19   6370 	C$ydrip.c$683$2$4 ==.
                           6371 ;	apps/ydrip/ydrip.c:683: pPkt->battery, 					 				// 		Dexcom Transmitter Battery
   2148 78 47              6372 	mov	r0,#_print_packet_pPkt_1_1
   214A E2                 6373 	movx	a,@r0
   214B 24 10              6374 	add	a,#0x10
   214D F5 82              6375 	mov	dpl,a
   214F 08                 6376 	inc	r0
   2150 E2                 6377 	movx	a,@r0
   2151 34 00              6378 	addc	a,#0x00
   2153 F5 83              6379 	mov	dph,a
   2155 E0                 6380 	movx	a,@dptr
   2156 FB                 6381 	mov	r3,a
   2157 8B 26              6382 	mov	_print_packet_sloc0_1_0,r3
   2159 75 27 00           6383 	mov	(_print_packet_sloc0_1_0 + 1),#0x00
                    1B2D   6384 	C$ydrip.c$682$2$4 ==.
                           6385 ;	apps/ydrip/ydrip.c:682: dex_num_decoder(pPkt->filtered)*2,				// 		Filtered BG Value
   215C 78 47              6386 	mov	r0,#_print_packet_pPkt_1_1
   215E E2                 6387 	movx	a,@r0
   215F 24 0E              6388 	add	a,#0x0E
   2161 F5 82              6389 	mov	dpl,a
   2163 08                 6390 	inc	r0
   2164 E2                 6391 	movx	a,@r0
   2165 34 00              6392 	addc	a,#0x00
   2167 F5 83              6393 	mov	dph,a
   2169 E0                 6394 	movx	a,@dptr
   216A FA                 6395 	mov	r2,a
   216B A3                 6396 	inc	dptr
   216C E0                 6397 	movx	a,@dptr
   216D FB                 6398 	mov	r3,a
   216E 8A 82              6399 	mov	dpl,r2
   2170 8B 83              6400 	mov	dph,r3
   2172 C0 05              6401 	push	ar5
   2174 C0 04              6402 	push	ar4
   2176 12 07 F2           6403 	lcall	_dex_num_decoder
   2179 AA 82              6404 	mov	r2,dpl
   217B AB 83              6405 	mov	r3,dph
   217D AE F0              6406 	mov	r6,b
   217F FF                 6407 	mov	r7,a
   2180 EA                 6408 	mov	a,r2
   2181 2A                 6409 	add	a,r2
   2182 F5 2A              6410 	mov	_print_packet_sloc2_1_0,a
   2184 EB                 6411 	mov	a,r3
   2185 33                 6412 	rlc	a
   2186 F5 2B              6413 	mov	(_print_packet_sloc2_1_0 + 1),a
   2188 EE                 6414 	mov	a,r6
   2189 33                 6415 	rlc	a
   218A F5 2C              6416 	mov	(_print_packet_sloc2_1_0 + 2),a
   218C EF                 6417 	mov	a,r7
   218D 33                 6418 	rlc	a
   218E F5 2D              6419 	mov	(_print_packet_sloc2_1_0 + 3),a
                    1B61   6420 	C$ydrip.c$681$2$4 ==.
                           6421 ;	apps/ydrip/ydrip.c:681: dex_num_decoder(pPkt->raw),		 				// 		Raw BQ Value
   2190 78 47              6422 	mov	r0,#_print_packet_pPkt_1_1
   2192 E2                 6423 	movx	a,@r0
   2193 24 0C              6424 	add	a,#0x0C
   2195 F5 82              6425 	mov	dpl,a
   2197 08                 6426 	inc	r0
   2198 E2                 6427 	movx	a,@r0
   2199 34 00              6428 	addc	a,#0x00
   219B F5 83              6429 	mov	dph,a
   219D E0                 6430 	movx	a,@dptr
   219E FE                 6431 	mov	r6,a
   219F A3                 6432 	inc	dptr
   21A0 E0                 6433 	movx	a,@dptr
   21A1 FF                 6434 	mov	r7,a
   21A2 8E 82              6435 	mov	dpl,r6
   21A4 8F 83              6436 	mov	dph,r7
   21A6 12 07 F2           6437 	lcall	_dex_num_decoder
   21A9 AA 82              6438 	mov	r2,dpl
   21AB AB 83              6439 	mov	r3,dph
   21AD AE F0              6440 	mov	r6,b
   21AF FF                 6441 	mov	r7,a
   21B0 D0 04              6442 	pop	ar4
   21B2 D0 05              6443 	pop	ar5
                    1B85   6444 	C$ydrip.c$680$2$4 ==.
                           6445 ;	apps/ydrip/ydrip.c:680: transID,						 				// 		Transmitter ID - from packet in case only_listen_for_my_transmitter false
                    1B85   6446 	C$ydrip.c$679$2$4 ==.
                           6447 ;	apps/ydrip/ydrip.c:679: pPkt->txId, 					 				// 		Transmission ID - unique-ish identifier
   21B4 8C 82              6448 	mov	dpl,r4
   21B6 8D 83              6449 	mov	dph,r5
   21B8 E0                 6450 	movx	a,@dptr
   21B9 FC                 6451 	mov	r4,a
   21BA 7D 00              6452 	mov	r5,#0x00
                    1B8D   6453 	C$ydrip.c$678$2$4 ==.
                           6454 ;	apps/ydrip/ydrip.c:678: wixFone_ID, 					 				// 		xDrip2g Device Identifier
                    1B8D   6455 	C$ydrip.c$677$2$4 ==.
                           6456 ;	apps/ydrip/ydrip.c:677: prtlen = sprintf(sprintfBuffer, "%s %hhu %s %lu %lu %d %d 100 -6.127100,53.241300",	// Includes home GPS coordinates for Dexie - change to yours
   21BC C0 28              6457 	push	_print_packet_sloc1_1_0
   21BE C0 29              6458 	push	(_print_packet_sloc1_1_0 + 1)
   21C0 C0 26              6459 	push	_print_packet_sloc0_1_0
   21C2 C0 27              6460 	push	(_print_packet_sloc0_1_0 + 1)
   21C4 C0 2A              6461 	push	_print_packet_sloc2_1_0
   21C6 C0 2B              6462 	push	(_print_packet_sloc2_1_0 + 1)
   21C8 C0 2C              6463 	push	(_print_packet_sloc2_1_0 + 2)
   21CA C0 2D              6464 	push	(_print_packet_sloc2_1_0 + 3)
   21CC C0 02              6465 	push	ar2
   21CE C0 03              6466 	push	ar3
   21D0 C0 06              6467 	push	ar6
   21D2 C0 07              6468 	push	ar7
   21D4 74 DE              6469 	mov	a,#_print_packet_transID_1_1
   21D6 C0 E0              6470 	push	acc
   21D8 74 F2              6471 	mov	a,#(_print_packet_transID_1_1 >> 8)
   21DA C0 E0              6472 	push	acc
   21DC E4                 6473 	clr	a
   21DD C0 E0              6474 	push	acc
   21DF C0 04              6475 	push	ar4
   21E1 C0 05              6476 	push	ar5
   21E3 74 47              6477 	mov	a,#_wixFone_ID
   21E5 C0 E0              6478 	push	acc
   21E7 74 F8              6479 	mov	a,#(_wixFone_ID >> 8)
   21E9 C0 E0              6480 	push	acc
   21EB E4                 6481 	clr	a
   21EC C0 E0              6482 	push	acc
   21EE 74 9E              6483 	mov	a,#__str_63
   21F0 C0 E0              6484 	push	acc
   21F2 74 66              6485 	mov	a,#(__str_63 >> 8)
   21F4 C0 E0              6486 	push	acc
   21F6 74 80              6487 	mov	a,#0x80
   21F8 C0 E0              6488 	push	acc
   21FA 74 F4              6489 	mov	a,#_print_packet_sprintfBuffer_1_1
   21FC C0 E0              6490 	push	acc
   21FE 74 F2              6491 	mov	a,#(_print_packet_sprintfBuffer_1_1 >> 8)
   2200 C0 E0              6492 	push	acc
   2202 E4                 6493 	clr	a
   2203 C0 E0              6494 	push	acc
   2205 12 4E C1           6495 	lcall	_sprintf
   2208 AE 82              6496 	mov	r6,dpl
   220A E5 81              6497 	mov	a,sp
   220C 24 E6              6498 	add	a,#0xe6
   220E F5 81              6499 	mov	sp,a
                    1BE1   6500 	C$ydrip.c$686$2$4 ==.
                           6501 ;	apps/ydrip/ydrip.c:686: for(i = prtlen; i < 64; ++i)
   2210 8E 07              6502 	mov	ar7,r6
   2212                    6503 00108$:
   2212 BF 40 00           6504 	cjne	r7,#0x40,00138$
   2215                    6505 00138$:
   2215 50 10              6506 	jnc	00111$
                    1BE8   6507 	C$ydrip.c$687$2$4 ==.
                           6508 ;	apps/ydrip/ydrip.c:687: sprintfBuffer[i]=' ';							//		Fill rest of array with spaces
   2217 EF                 6509 	mov	a,r7
   2218 24 F4              6510 	add	a,#_print_packet_sprintfBuffer_1_1
   221A F5 82              6511 	mov	dpl,a
   221C E4                 6512 	clr	a
   221D 34 F2              6513 	addc	a,#(_print_packet_sprintfBuffer_1_1 >> 8)
   221F F5 83              6514 	mov	dph,a
   2221 74 20              6515 	mov	a,#0x20
   2223 F0                 6516 	movx	@dptr,a
                    1BF5   6517 	C$ydrip.c$686$2$4 ==.
                           6518 ;	apps/ydrip/ydrip.c:686: for(i = prtlen; i < 64; ++i)
   2224 0F                 6519 	inc	r7
   2225 80 EB              6520 	sjmp	00108$
   2227                    6521 00111$:
                    1BF8   6522 	C$ydrip.c$689$2$4 ==.
                           6523 ;	apps/ydrip/ydrip.c:689: if (encrypt_output==1) {							//		Check if to encode the output using AES-128 encryption
   2227 20 04 03           6524 	jb	_encrypt_output,00140$
   222A 02 22 BF           6525 	ljmp	00104$
   222D                    6526 00140$:
                    1BFE   6527 	C$ydrip.c$690$3$6 ==.
                           6528 ;	apps/ydrip/ydrip.c:690: AES128_CBC_encrypt_buffer(AESBuffer, sprintfBuffer, 64, key, iv);   //	encrypt(output, input, length, key, vector)
   222D 90 F7 F9           6529 	mov	dptr,#_AES128_CBC_encrypt_buffer_PARM_2
   2230 74 F4              6530 	mov	a,#_print_packet_sprintfBuffer_1_1
   2232 F0                 6531 	movx	@dptr,a
   2233 A3                 6532 	inc	dptr
   2234 74 F2              6533 	mov	a,#(_print_packet_sprintfBuffer_1_1 >> 8)
   2236 F0                 6534 	movx	@dptr,a
   2237 90 F7 FB           6535 	mov	dptr,#_AES128_CBC_encrypt_buffer_PARM_3
   223A 74 40              6536 	mov	a,#0x40
   223C F0                 6537 	movx	@dptr,a
   223D A3                 6538 	inc	dptr
   223E E4                 6539 	clr	a
   223F F0                 6540 	movx	@dptr,a
   2240 A3                 6541 	inc	dptr
   2241 F0                 6542 	movx	@dptr,a
   2242 A3                 6543 	inc	dptr
   2243 F0                 6544 	movx	@dptr,a
   2244 90 F7 FF           6545 	mov	dptr,#_AES128_CBC_encrypt_buffer_PARM_4
   2247 74 4F              6546 	mov	a,#_key
   2249 F0                 6547 	movx	@dptr,a
   224A A3                 6548 	inc	dptr
   224B 74 F8              6549 	mov	a,#(_key >> 8)
   224D F0                 6550 	movx	@dptr,a
   224E 90 F8 01           6551 	mov	dptr,#_AES128_CBC_encrypt_buffer_PARM_5
   2251 74 E4              6552 	mov	a,#_print_packet_iv_1_1
   2253 F0                 6553 	movx	@dptr,a
   2254 A3                 6554 	inc	dptr
   2255 74 F2              6555 	mov	a,#(_print_packet_iv_1_1 >> 8)
   2257 F0                 6556 	movx	@dptr,a
   2258 90 F3 34           6557 	mov	dptr,#_print_packet_AESBuffer_1_1
   225B 12 48 C7           6558 	lcall	_AES128_CBC_encrypt_buffer
                    1C2F   6559 	C$ydrip.c$691$3$6 ==.
                           6560 ;	apps/ydrip/ydrip.c:691: printf("sk:send(\"yDrip(AES): ");				//		Send the preamble to the Dexie Server first
   225E 74 CF              6561 	mov	a,#__str_64
   2260 C0 E0              6562 	push	acc
   2262 74 66              6563 	mov	a,#(__str_64 >> 8)
   2264 C0 E0              6564 	push	acc
   2266 74 80              6565 	mov	a,#0x80
   2268 C0 E0              6566 	push	acc
   226A 12 50 CA           6567 	lcall	_printf
   226D 15 81              6568 	dec	sp
   226F 15 81              6569 	dec	sp
   2271 15 81              6570 	dec	sp
                    1C44   6571 	C$ydrip.c$692$1$1 ==.
                           6572 ;	apps/ydrip/ydrip.c:692: for(i = 0; i < 16; ++i)							
   2273 7F 00              6573 	mov	r7,#0x00
   2275                    6574 00112$:
   2275 BF 10 00           6575 	cjne	r7,#0x10,00141$
   2278                    6576 00141$:
   2278 50 2E              6577 	jnc	00115$
                    1C4B   6578 	C$ydrip.c$693$3$6 ==.
                           6579 ;	apps/ydrip/ydrip.c:693: printf("%02x", iv[i]);						//		Print initialisation vector as cleartext.  This is not a secret, just unique.
   227A EF                 6580 	mov	a,r7
   227B 24 E4              6581 	add	a,#_print_packet_iv_1_1
   227D F5 82              6582 	mov	dpl,a
   227F E4                 6583 	clr	a
   2280 34 F2              6584 	addc	a,#(_print_packet_iv_1_1 >> 8)
   2282 F5 83              6585 	mov	dph,a
   2284 E0                 6586 	movx	a,@dptr
   2285 FE                 6587 	mov	r6,a
   2286 7D 00              6588 	mov	r5,#0x00
   2288 C0 07              6589 	push	ar7
   228A C0 06              6590 	push	ar6
   228C C0 05              6591 	push	ar5
   228E 74 E5              6592 	mov	a,#__str_65
   2290 C0 E0              6593 	push	acc
   2292 74 66              6594 	mov	a,#(__str_65 >> 8)
   2294 C0 E0              6595 	push	acc
   2296 74 80              6596 	mov	a,#0x80
   2298 C0 E0              6597 	push	acc
   229A 12 50 CA           6598 	lcall	_printf
   229D E5 81              6599 	mov	a,sp
   229F 24 FB              6600 	add	a,#0xfb
   22A1 F5 81              6601 	mov	sp,a
   22A3 D0 07              6602 	pop	ar7
                    1C76   6603 	C$ydrip.c$692$3$6 ==.
                           6604 ;	apps/ydrip/ydrip.c:692: for(i = 0; i < 16; ++i)							
   22A5 0F                 6605 	inc	r7
   22A6 80 CD              6606 	sjmp	00112$
   22A8                    6607 00115$:
                    1C79   6608 	C$ydrip.c$694$3$6 ==.
                           6609 ;	apps/ydrip/ydrip.c:694: printf(" ");									//		Separate IV from encrypted text with a delimiting space
   22A8 74 EA              6610 	mov	a,#__str_66
   22AA C0 E0              6611 	push	acc
   22AC 74 66              6612 	mov	a,#(__str_66 >> 8)
   22AE C0 E0              6613 	push	acc
   22B0 74 80              6614 	mov	a,#0x80
   22B2 C0 E0              6615 	push	acc
   22B4 12 50 CA           6616 	lcall	_printf
   22B7 15 81              6617 	dec	sp
   22B9 15 81              6618 	dec	sp
   22BB 15 81              6619 	dec	sp
   22BD 80 2A              6620 	sjmp	00130$
   22BF                    6621 00104$:
                    1C90   6622 	C$ydrip.c$696$3$7 ==.
                           6623 ;	apps/ydrip/ydrip.c:696: strcpy(AESBuffer, sprintfBuffer); 				// 		Just copy the characters that we want to send in the clear if no encryption
   22BF 78 5E              6624 	mov	r0,#_strcpy_PARM_2
   22C1 74 F4              6625 	mov	a,#_print_packet_sprintfBuffer_1_1
   22C3 F2                 6626 	movx	@r0,a
   22C4 08                 6627 	inc	r0
   22C5 74 F2              6628 	mov	a,#(_print_packet_sprintfBuffer_1_1 >> 8)
   22C7 F2                 6629 	movx	@r0,a
   22C8 08                 6630 	inc	r0
   22C9 E4                 6631 	clr	a
   22CA F2                 6632 	movx	@r0,a
   22CB 90 F3 34           6633 	mov	dptr,#_print_packet_AESBuffer_1_1
   22CE 75 F0 00           6634 	mov	b,#0x00
   22D1 12 31 E6           6635 	lcall	_strcpy
                    1CA5   6636 	C$ydrip.c$697$3$7 ==.
                           6637 ;	apps/ydrip/ydrip.c:697: printf("sk:send(\"yDrip: ");					//		Slightly different preamble so Dexie knows the/re is no encryption - and no IV needed
   22D4 74 EC              6638 	mov	a,#__str_67
   22D6 C0 E0              6639 	push	acc
   22D8 74 66              6640 	mov	a,#(__str_67 >> 8)
   22DA C0 E0              6641 	push	acc
   22DC 74 80              6642 	mov	a,#0x80
   22DE C0 E0              6643 	push	acc
   22E0 12 50 CA           6644 	lcall	_printf
   22E3 15 81              6645 	dec	sp
   22E5 15 81              6646 	dec	sp
   22E7 15 81              6647 	dec	sp
                    1CBA   6648 	C$ydrip.c$700$1$1 ==.
                           6649 ;	apps/ydrip/ydrip.c:700: for(i = 0; i < 64; ++i) 							//		Loop through 64 character block of encrypted text
   22E9                    6650 00130$:
   22E9 7F 00              6651 	mov	r7,#0x00
   22EB                    6652 00116$:
   22EB BF 40 00           6653 	cjne	r7,#0x40,00143$
   22EE                    6654 00143$:
   22EE 50 2E              6655 	jnc	00119$
                    1CC1   6656 	C$ydrip.c$701$2$4 ==.
                           6657 ;	apps/ydrip/ydrip.c:701: printf("%02x", AESBuffer[i]);					//		and print each character, one by one
   22F0 EF                 6658 	mov	a,r7
   22F1 24 34              6659 	add	a,#_print_packet_AESBuffer_1_1
   22F3 F5 82              6660 	mov	dpl,a
   22F5 E4                 6661 	clr	a
   22F6 34 F3              6662 	addc	a,#(_print_packet_AESBuffer_1_1 >> 8)
   22F8 F5 83              6663 	mov	dph,a
   22FA E0                 6664 	movx	a,@dptr
   22FB FE                 6665 	mov	r6,a
   22FC 7D 00              6666 	mov	r5,#0x00
   22FE C0 07              6667 	push	ar7
   2300 C0 06              6668 	push	ar6
   2302 C0 05              6669 	push	ar5
   2304 74 E5              6670 	mov	a,#__str_65
   2306 C0 E0              6671 	push	acc
   2308 74 66              6672 	mov	a,#(__str_65 >> 8)
   230A C0 E0              6673 	push	acc
   230C 74 80              6674 	mov	a,#0x80
   230E C0 E0              6675 	push	acc
   2310 12 50 CA           6676 	lcall	_printf
   2313 E5 81              6677 	mov	a,sp
   2315 24 FB              6678 	add	a,#0xfb
   2317 F5 81              6679 	mov	sp,a
   2319 D0 07              6680 	pop	ar7
                    1CEC   6681 	C$ydrip.c$700$2$4 ==.
                           6682 ;	apps/ydrip/ydrip.c:700: for(i = 0; i < 64; ++i) 							//		Loop through 64 character block of encrypted text
   231B 0F                 6683 	inc	r7
   231C 80 CD              6684 	sjmp	00116$
   231E                    6685 00119$:
                    1CEF   6686 	C$ydrip.c$703$2$4 ==.
                           6687 ;	apps/ydrip/ydrip.c:703: printf("\\r\\n\")\r\n");	delayMs(defaultWaitTime);	// 		CR/LF
   231E 74 FD              6688 	mov	a,#__str_68
   2320 C0 E0              6689 	push	acc
   2322 74 66              6690 	mov	a,#(__str_68 >> 8)
   2324 C0 E0              6691 	push	acc
   2326 74 80              6692 	mov	a,#0x80
   2328 C0 E0              6693 	push	acc
   232A 12 50 CA           6694 	lcall	_printf
   232D 15 81              6695 	dec	sp
   232F 15 81              6696 	dec	sp
   2331 15 81              6697 	dec	sp
   2333 90 F8 74           6698 	mov	dptr,#_defaultWaitTime
   2336 E0                 6699 	movx	a,@dptr
   2337 FC                 6700 	mov	r4,a
   2338 A3                 6701 	inc	dptr
   2339 E0                 6702 	movx	a,@dptr
   233A FD                 6703 	mov	r5,a
   233B A3                 6704 	inc	dptr
   233C E0                 6705 	movx	a,@dptr
   233D A3                 6706 	inc	dptr
   233E E0                 6707 	movx	a,@dptr
   233F 8C 82              6708 	mov	dpl,r4
   2341 8D 83              6709 	mov	dph,r5
   2343 12 4C EF           6710 	lcall	_delayMs
                    1D17   6711 	C$ydrip.c$704$2$4 ==.
                           6712 ;	apps/ydrip/ydrip.c:704: printf("gpio.write(4, gpio.HIGH)\r\n"); delayMs(defaultWaitTime);	// Switch off blue LED
   2346 74 D8              6713 	mov	a,#__str_31
   2348 C0 E0              6714 	push	acc
   234A 74 63              6715 	mov	a,#(__str_31 >> 8)
   234C C0 E0              6716 	push	acc
   234E 74 80              6717 	mov	a,#0x80
   2350 C0 E0              6718 	push	acc
   2352 12 50 CA           6719 	lcall	_printf
   2355 15 81              6720 	dec	sp
   2357 15 81              6721 	dec	sp
   2359 15 81              6722 	dec	sp
   235B 90 F8 74           6723 	mov	dptr,#_defaultWaitTime
   235E E0                 6724 	movx	a,@dptr
   235F FC                 6725 	mov	r4,a
   2360 A3                 6726 	inc	dptr
   2361 E0                 6727 	movx	a,@dptr
   2362 FD                 6728 	mov	r5,a
   2363 A3                 6729 	inc	dptr
   2364 E0                 6730 	movx	a,@dptr
   2365 A3                 6731 	inc	dptr
   2366 E0                 6732 	movx	a,@dptr
   2367 8C 82              6733 	mov	dpl,r4
   2369 8D 83              6734 	mov	dph,r5
   236B 12 4C EF           6735 	lcall	_delayMs
                    1D3F   6736 	C$ydrip.c$705$2$4 ==.
                           6737 ;	apps/ydrip/ydrip.c:705: delayMs(defaultWaitTime);									// Need to wait here also as sometimes missing ctrl-z
   236E 90 F8 74           6738 	mov	dptr,#_defaultWaitTime
   2371 E0                 6739 	movx	a,@dptr
   2372 FC                 6740 	mov	r4,a
   2373 A3                 6741 	inc	dptr
   2374 E0                 6742 	movx	a,@dptr
   2375 FD                 6743 	mov	r5,a
   2376 A3                 6744 	inc	dptr
   2377 E0                 6745 	movx	a,@dptr
   2378 A3                 6746 	inc	dptr
   2379 E0                 6747 	movx	a,@dptr
   237A 8C 82              6748 	mov	dpl,r4
   237C 8D 83              6749 	mov	dph,r5
   237E 12 4C EF           6750 	lcall	_delayMs
   2381                    6751 00107$:
                    1D52   6752 	C$ydrip.c$707$1$1 ==.
                           6753 ;	apps/ydrip/ydrip.c:707: uartDisable();
   2381 12 06 6D           6754 	lcall	_uartDisable
                    1D55   6755 	C$ydrip.c$708$1$1 ==.
                    1D55   6756 	XG$print_packet$0$0 ==.
   2384 22                 6757 	ret
                           6758 ;------------------------------------------------------------
                           6759 ;Allocation info for local variables in function 'makeAllOutputs'
                           6760 ;------------------------------------------------------------
                           6761 ;i                         Allocated with name '_makeAllOutputs_i_1_1'
                           6762 ;------------------------------------------------------------
                    1D56   6763 	G$makeAllOutputs$0$0 ==.
                    1D56   6764 	C$ydrip.c$710$1$1 ==.
                           6765 ;	apps/ydrip/ydrip.c:710: void makeAllOutputs() {
                           6766 ;	-----------------------------------------
                           6767 ;	 function makeAllOutputs
                           6768 ;	-----------------------------------------
   2385                    6769 _makeAllOutputs:
                    1D56   6770 	C$ydrip.c$712$1$1 ==.
                           6771 ;	apps/ydrip/ydrip.c:712: for (i=1; i < 16; i++) { // in the future, this should be set to only the channels being used for output, and add the one for input
   2385 7E 01              6772 	mov	r6,#0x01
   2387 7F 00              6773 	mov	r7,#0x00
   2389                    6774 00101$:
   2389 C3                 6775 	clr	c
   238A EE                 6776 	mov	a,r6
   238B 94 10              6777 	subb	a,#0x10
   238D EF                 6778 	mov	a,r7
   238E 64 80              6779 	xrl	a,#0x80
   2390 94 80              6780 	subb	a,#0x80
   2392 50 19              6781 	jnc	00105$
                    1D65   6782 	C$ydrip.c$715$2$2 ==.
                           6783 ;	apps/ydrip/ydrip.c:715: setDigitalOutput(i, LOW);
   2394 8E 82              6784 	mov	dpl,r6
   2396 C2 F0              6785 	clr	b[0]
   2398 C0 07              6786 	push	ar7
   239A C0 06              6787 	push	ar6
   239C 85 F0 25           6788 	mov	bits,b
   239F 12 58 21           6789 	lcall	_setDigitalOutput
   23A2 D0 06              6790 	pop	ar6
   23A4 D0 07              6791 	pop	ar7
                    1D77   6792 	C$ydrip.c$712$1$1 ==.
                           6793 ;	apps/ydrip/ydrip.c:712: for (i=1; i < 16; i++) { // in the future, this should be set to only the channels being used for output, and add the one for input
   23A6 0E                 6794 	inc	r6
   23A7 BE 00 DF           6795 	cjne	r6,#0x00,00101$
   23AA 0F                 6796 	inc	r7
   23AB 80 DC              6797 	sjmp	00101$
   23AD                    6798 00105$:
                    1D7E   6799 	C$ydrip.c$717$1$1 ==.
                    1D7E   6800 	XG$makeAllOutputs$0$0 ==.
   23AD 22                 6801 	ret
                           6802 ;------------------------------------------------------------
                           6803 ;Allocation info for local variables in function 'makeAllOutputsLow'
                           6804 ;------------------------------------------------------------
                           6805 ;i                         Allocated with name '_makeAllOutputsLow_i_1_1'
                           6806 ;------------------------------------------------------------
                    1D7F   6807 	G$makeAllOutputsLow$0$0 ==.
                    1D7F   6808 	C$ydrip.c$718$1$1 ==.
                           6809 ;	apps/ydrip/ydrip.c:718: void makeAllOutputsLow() {
                           6810 ;	-----------------------------------------
                           6811 ;	 function makeAllOutputsLow
                           6812 ;	-----------------------------------------
   23AE                    6813 _makeAllOutputsLow:
                    1D7F   6814 	C$ydrip.c$720$1$1 ==.
                           6815 ;	apps/ydrip/ydrip.c:720: for (i=0; i < 16; i++) {
   23AE 7E 00              6816 	mov	r6,#0x00
   23B0 7F 00              6817 	mov	r7,#0x00
   23B2                    6818 00101$:
   23B2 C3                 6819 	clr	c
   23B3 EE                 6820 	mov	a,r6
   23B4 94 10              6821 	subb	a,#0x10
   23B6 EF                 6822 	mov	a,r7
   23B7 64 80              6823 	xrl	a,#0x80
   23B9 94 80              6824 	subb	a,#0x80
   23BB 50 19              6825 	jnc	00105$
                    1D8E   6826 	C$ydrip.c$723$2$2 ==.
                           6827 ;	apps/ydrip/ydrip.c:723: setDigitalOutput(i, LOW);
   23BD 8E 82              6828 	mov	dpl,r6
   23BF C2 F0              6829 	clr	b[0]
   23C1 C0 07              6830 	push	ar7
   23C3 C0 06              6831 	push	ar6
   23C5 85 F0 25           6832 	mov	bits,b
   23C8 12 58 21           6833 	lcall	_setDigitalOutput
   23CB D0 06              6834 	pop	ar6
   23CD D0 07              6835 	pop	ar7
                    1DA0   6836 	C$ydrip.c$720$1$1 ==.
                           6837 ;	apps/ydrip/ydrip.c:720: for (i=0; i < 16; i++) {
   23CF 0E                 6838 	inc	r6
   23D0 BE 00 DF           6839 	cjne	r6,#0x00,00101$
   23D3 0F                 6840 	inc	r7
   23D4 80 DC              6841 	sjmp	00101$
   23D6                    6842 00105$:
                    1DA7   6843 	C$ydrip.c$725$1$1 ==.
                    1DA7   6844 	XG$makeAllOutputsLow$0$0 ==.
   23D6 22                 6845 	ret
                           6846 ;------------------------------------------------------------
                           6847 ;Allocation info for local variables in function 'reset_offsets'
                           6848 ;------------------------------------------------------------
                           6849 ;i                         Allocated with name '_reset_offsets_i_1_1'
                           6850 ;------------------------------------------------------------
                    1DA8   6851 	G$reset_offsets$0$0 ==.
                    1DA8   6852 	C$ydrip.c$727$1$1 ==.
                           6853 ;	apps/ydrip/ydrip.c:727: void reset_offsets() {
                           6854 ;	-----------------------------------------
                           6855 ;	 function reset_offsets
                           6856 ;	-----------------------------------------
   23D7                    6857 _reset_offsets:
                    1DA8   6858 	C$ydrip.c$729$2$2 ==.
                           6859 ;	apps/ydrip/ydrip.c:729: for(i=0; i<4; i++) {
   23D7 7E 00              6860 	mov	r6,#0x00
   23D9 7F 00              6861 	mov	r7,#0x00
   23DB                    6862 00101$:
   23DB C3                 6863 	clr	c
   23DC EE                 6864 	mov	a,r6
   23DD 94 04              6865 	subb	a,#0x04
   23DF EF                 6866 	mov	a,r7
   23E0 64 80              6867 	xrl	a,#0x80
   23E2 94 80              6868 	subb	a,#0x80
   23E4 50 18              6869 	jnc	00105$
                    1DB7   6870 	C$ydrip.c$730$2$2 ==.
                           6871 ;	apps/ydrip/ydrip.c:730: fOffset[i] = defaultfOffset[i];
   23E6 EE                 6872 	mov	a,r6
   23E7 24 02              6873 	add	a,#_fOffset
   23E9 F9                 6874 	mov	r1,a
   23EA EE                 6875 	mov	a,r6
   23EB 24 60              6876 	add	a,#_defaultfOffset
   23ED F5 82              6877 	mov	dpl,a
   23EF EF                 6878 	mov	a,r7
   23F0 34 F8              6879 	addc	a,#(_defaultfOffset >> 8)
   23F2 F5 83              6880 	mov	dph,a
   23F4 E0                 6881 	movx	a,@dptr
   23F5 FD                 6882 	mov	r5,a
   23F6 F3                 6883 	movx	@r1,a
                    1DC8   6884 	C$ydrip.c$729$1$1 ==.
                           6885 ;	apps/ydrip/ydrip.c:729: for(i=0; i<4; i++) {
   23F7 0E                 6886 	inc	r6
   23F8 BE 00 E0           6887 	cjne	r6,#0x00,00101$
   23FB 0F                 6888 	inc	r7
   23FC 80 DD              6889 	sjmp	00101$
   23FE                    6890 00105$:
                    1DCF   6891 	C$ydrip.c$732$1$1 ==.
                    1DCF   6892 	XG$reset_offsets$0$0 ==.
   23FE 22                 6893 	ret
                           6894 ;------------------------------------------------------------
                           6895 ;Allocation info for local variables in function 'killWithWatchdog'
                           6896 ;------------------------------------------------------------
                    1DD0   6897 	G$killWithWatchdog$0$0 ==.
                    1DD0   6898 	C$ydrip.c$734$1$1 ==.
                           6899 ;	apps/ydrip/ydrip.c:734: void killWithWatchdog() {
                           6900 ;	-----------------------------------------
                           6901 ;	 function killWithWatchdog
                           6902 ;	-----------------------------------------
   23FF                    6903 _killWithWatchdog:
                    1DD0   6904 	C$ydrip.c$735$1$1 ==.
                           6905 ;	apps/ydrip/ydrip.c:735: WDCTL = (WDCTL & ~0x03) | 0x00;
   23FF AF C9              6906 	mov	r7,_WDCTL
   2401 53 07 FC           6907 	anl	ar7,#0xFC
   2404 8F C9              6908 	mov	_WDCTL,r7
                    1DD7   6909 	C$ydrip.c$736$1$1 ==.
                           6910 ;	apps/ydrip/ydrip.c:736: WDCTL = (WDCTL & ~0x04) | 0x08;		// This actually does a soft reset on the Wixel
   2406 AF C9              6911 	mov	r7,_WDCTL
   2408 74 FB              6912 	mov	a,#0xFB
   240A 5F                 6913 	anl	a,r7
   240B 44 08              6914 	orl	a,#0x08
   240D FF                 6915 	mov	r7,a
   240E 8F C9              6916 	mov	_WDCTL,r7
                    1DE1   6917 	C$ydrip.c$737$1$1 ==.
                    1DE1   6918 	XG$killWithWatchdog$0$0 ==.
   2410 22                 6919 	ret
                           6920 ;------------------------------------------------------------
                           6921 ;Allocation info for local variables in function 'goToSleep'
                           6922 ;------------------------------------------------------------
                           6923 ;sloc0                     Allocated with name '_goToSleep_sloc0_1_0'
                           6924 ;sloc1                     Allocated with name '_goToSleep_sloc1_1_0'
                           6925 ;seconds                   Allocated with name '_goToSleep_seconds_1_1'
                           6926 ;------------------------------------------------------------
                    1DE2   6927 	G$goToSleep$0$0 ==.
                    1DE2   6928 	C$ydrip.c$739$1$1 ==.
                           6929 ;	apps/ydrip/ydrip.c:739: XDATA void goToSleep (XDATA int16 seconds) {
                           6930 ;	-----------------------------------------
                           6931 ;	 function goToSleep
                           6932 ;	-----------------------------------------
   2411                    6933 _goToSleep:
   2411 AF 83              6934 	mov	r7,dph
   2413 E5 82              6935 	mov	a,dpl
   2415 90 F3 85           6936 	mov	dptr,#_goToSleep_seconds_1_1
   2418 F0                 6937 	movx	@dptr,a
   2419 A3                 6938 	inc	dptr
   241A EF                 6939 	mov	a,r7
   241B F0                 6940 	movx	@dptr,a
                    1DED   6941 	C$ydrip.c$740$1$1 ==.
                           6942 ;	apps/ydrip/ydrip.c:740: adcSetMillivoltCalibration(adcReadVddMillivolts());
   241C 12 35 80           6943 	lcall	_adcReadVddMillivolts
   241F 12 35 CD           6944 	lcall	_adcSetMillivoltCalibration
                    1DF3   6945 	C$ydrip.c$741$1$1 ==.
                           6946 ;	apps/ydrip/ydrip.c:741: makeAllOutputsLow();
   2422 12 23 AE           6947 	lcall	_makeAllOutputsLow
                    1DF6   6948 	C$ydrip.c$743$1$1 ==.
                           6949 ;	apps/ydrip/ydrip.c:743: if(!needsTimingCalibration) {
   2425 30 05 03           6950 	jnb	_needsTimingCalibration,00134$
   2428 02 25 DA           6951 	ljmp	00120$
   242B                    6952 00134$:
                    1DFC   6953 	C$ydrip.c$744$2$2 ==.
                           6954 ;	apps/ydrip/ydrip.c:744: if(!usbPowerPresent()){
   242B 12 41 79           6955 	lcall	_usbPowerPresent
   242E 50 03              6956 	jnc	00135$
   2430 02 25 4D           6957 	ljmp	00117$
   2433                    6958 00135$:
                    1E04   6959 	C$ydrip.c$750$3$2 ==.
                           6960 ;	apps/ydrip/ydrip.c:750: uint8 savedPICTL = PICTL;
   2433 AF 8C              6961 	mov	r7,_PICTL
                    1E06   6962 	C$ydrip.c$751$3$2 ==.
                           6963 ;	apps/ydrip/ydrip.c:751: BIT savedP0IE = P0IE;
   2435 A2 BD              6964 	mov	c,_P0IE
   2437 92 08              6965 	mov	_goToSleep_savedP0IE_3_3,c
                    1E0A   6966 	C$ydrip.c$752$3$2 ==.
                           6967 ;	apps/ydrip/ydrip.c:752: uint8 savedP0SEL = P0SEL;
   2439 AE F3              6968 	mov	r6,_P0SEL
                    1E0C   6969 	C$ydrip.c$753$3$2 ==.
                           6970 ;	apps/ydrip/ydrip.c:753: uint8 savedP0DIR = P0DIR;
   243B AD FD              6971 	mov	r5,_P0DIR
                    1E0E   6972 	C$ydrip.c$754$3$2 ==.
                           6973 ;	apps/ydrip/ydrip.c:754: uint8 savedP1SEL = P1SEL;
   243D 78 4D              6974 	mov	r0,#_goToSleep_savedP1SEL_3_3
   243F E5 F4              6975 	mov	a,_P1SEL
   2441 F2                 6976 	movx	@r0,a
                    1E13   6977 	C$ydrip.c$755$3$2 ==.
                           6978 ;	apps/ydrip/ydrip.c:755: uint8 savedP1DIR = P1DIR;
   2442 78 4E              6979 	mov	r0,#_goToSleep_savedP1DIR_3_3
   2444 E5 FE              6980 	mov	a,_P1DIR
   2446 F2                 6981 	movx	@r0,a
                    1E18   6982 	C$ydrip.c$757$3$3 ==.
                           6983 ;	apps/ydrip/ydrip.c:757: sleepInit();
   2447 C0 07              6984 	push	ar7
   2449 C0 06              6985 	push	ar6
   244B C0 05              6986 	push	ar5
   244D 12 06 2F           6987 	lcall	_sleepInit
                    1E21   6988 	C$ydrip.c$759$3$3 ==.
                           6989 ;	apps/ydrip/ydrip.c:759: disableUsbPullup();
   2450 12 41 82           6990 	lcall	_disableUsbPullup
                    1E24   6991 	C$ydrip.c$760$3$3 ==.
                           6992 ;	apps/ydrip/ydrip.c:760: usbDeviceState = USB_STATE_DETACHED;
   2453 90 F8 9F           6993 	mov	dptr,#_usbDeviceState
   2456 E4                 6994 	clr	a
   2457 F0                 6995 	movx	@dptr,a
                    1E29   6996 	C$ydrip.c$761$3$3 ==.
                           6997 ;	apps/ydrip/ydrip.c:761: usbEnabled = 0;
   2458 C2 06              6998 	clr	_usbEnabled
                    1E2B   6999 	C$ydrip.c$762$3$3 ==.
                           7000 ;	apps/ydrip/ydrip.c:762: SLEEP &= ~(1<<7);
   245A AA BE              7001 	mov	r2,_SLEEP
   245C 53 02 7F           7002 	anl	ar2,#0x7F
   245F 8A BE              7003 	mov	_SLEEP,r2
                    1E32   7004 	C$ydrip.c$764$3$3 ==.
                           7005 ;	apps/ydrip/ydrip.c:764: WORCTRL |= 0x03; // 2^5 periods
   2461 43 A2 03           7006 	orl	_WORCTRL,#0x03
                    1E35   7007 	C$ydrip.c$765$3$3 ==.
                           7008 ;	apps/ydrip/ydrip.c:765: switchToRCOSC();
   2464 12 06 3D           7009 	lcall	_switchToRCOSC
   2467 D0 05              7010 	pop	ar5
   2469 D0 06              7011 	pop	ar6
   246B D0 07              7012 	pop	ar7
                    1E3E   7013 	C$ydrip.c$767$3$3 ==.
                           7014 ;	apps/ydrip/ydrip.c:767: storedDescHigh = DMA0CFGH;
   246D 78 49              7015 	mov	r0,#_goToSleep_storedDescHigh_3_3
   246F E5 D5              7016 	mov	a,_DMA0CFGH
   2471 F2                 7017 	movx	@r0,a
                    1E43   7018 	C$ydrip.c$768$3$3 ==.
                           7019 ;	apps/ydrip/ydrip.c:768: storedDescLow = DMA0CFGL;
   2472 78 4A              7020 	mov	r0,#_goToSleep_storedDescLow_3_3
   2474 E5 D4              7021 	mov	a,_DMA0CFGL
   2476 F2                 7022 	movx	@r0,a
                    1E48   7023 	C$ydrip.c$769$3$3 ==.
                           7024 ;	apps/ydrip/ydrip.c:769: storedDma0Armed = DMAARM & 0x01;
   2477 E5 D6              7025 	mov	a,_DMAARM
   2479 54 01              7026 	anl	a,#0x01
   247B 24 FF              7027 	add	a,#0xff
   247D 92 07              7028 	mov	_goToSleep_storedDma0Armed_3_3,c
                    1E50   7029 	C$ydrip.c$770$3$3 ==.
                           7030 ;	apps/ydrip/ydrip.c:770: DMAARM |= 0x81;
   247F 43 D6 81           7031 	orl	_DMAARM,#0x81
                    1E53   7032 	C$ydrip.c$771$3$3 ==.
                           7033 ;	apps/ydrip/ydrip.c:771: dmaDesc[0] = ((unsigned int)& PM2_BUF) >> 8;
   2482 7A 64              7034 	mov	r2,#_PM2_BUF
   2484 7B F8              7035 	mov	r3,#(_PM2_BUF >> 8)
   2486 8B 02              7036 	mov	ar2,r3
   2488 90 F8 6B           7037 	mov	dptr,#_dmaDesc
   248B EA                 7038 	mov	a,r2
   248C F0                 7039 	movx	@dptr,a
                    1E5E   7040 	C$ydrip.c$772$3$3 ==.
                           7041 ;	apps/ydrip/ydrip.c:772: dmaDesc[1] = (unsigned int)& PM2_BUF;
   248D 7A 64              7042 	mov	r2,#_PM2_BUF
   248F 7B F8              7043 	mov	r3,#(_PM2_BUF >> 8)
   2491 90 F8 6C           7044 	mov	dptr,#(_dmaDesc + 0x0001)
   2494 EA                 7045 	mov	a,r2
   2495 F0                 7046 	movx	@dptr,a
                    1E67   7047 	C$ydrip.c$774$3$3 ==.
                           7048 ;	apps/ydrip/ydrip.c:774: DMA0CFGH = ((unsigned int)&dmaDesc) >> 8;
   2496 7A 6B              7049 	mov	r2,#_dmaDesc
   2498 7B F8              7050 	mov	r3,#(_dmaDesc >> 8)
   249A 8B D5              7051 	mov	_DMA0CFGH,r3
                    1E6D   7052 	C$ydrip.c$775$3$3 ==.
                           7053 ;	apps/ydrip/ydrip.c:775: DMA0CFGL = (unsigned int)&dmaDesc;
   249C 7A 6B              7054 	mov	r2,#_dmaDesc
   249E 7B F8              7055 	mov	r3,#(_dmaDesc >> 8)
   24A0 8A D4              7056 	mov	_DMA0CFGL,r2
                    1E73   7057 	C$ydrip.c$776$3$3 ==.
                           7058 ;	apps/ydrip/ydrip.c:776: DMAARM = 0x01;
   24A2 75 D6 01           7059 	mov	_DMAARM,#0x01
                    1E76   7060 	C$ydrip.c$779$3$3 ==.
                           7061 ;	apps/ydrip/ydrip.c:779: storedIEN0 = IEN0;
   24A5 AB A8              7062 	mov	r3,_IEN0
                    1E78   7063 	C$ydrip.c$780$3$3 ==.
                           7064 ;	apps/ydrip/ydrip.c:780: storedIEN1 = IEN1;
   24A7 78 4B              7065 	mov	r0,#_goToSleep_storedIEN1_3_3
   24A9 E5 B8              7066 	mov	a,_IEN1
   24AB F2                 7067 	movx	@r0,a
                    1E7D   7068 	C$ydrip.c$781$3$3 ==.
                           7069 ;	apps/ydrip/ydrip.c:781: storedIEN2 = IEN2;
   24AC 78 4C              7070 	mov	r0,#_goToSleep_storedIEN2_3_3
   24AE E5 9A              7071 	mov	a,_IEN2
   24B0 F2                 7072 	movx	@r0,a
                    1E82   7073 	C$ydrip.c$784$3$3 ==.
                           7074 ;	apps/ydrip/ydrip.c:784: IEN0 |= 0xA0;
   24B1 43 A8 A0           7075 	orl	_IEN0,#0xA0
                    1E85   7076 	C$ydrip.c$787$3$3 ==.
                           7077 ;	apps/ydrip/ydrip.c:787: IEN0 &= 0xA0;
   24B4 53 A8 A0           7078 	anl	_IEN0,#0xA0
                    1E88   7079 	C$ydrip.c$788$3$3 ==.
                           7080 ;	apps/ydrip/ydrip.c:788: IEN1 &= ~0x3F;
   24B7 AA B8              7081 	mov	r2,_IEN1
   24B9 53 02 C0           7082 	anl	ar2,#0xC0
   24BC 8A B8              7083 	mov	_IEN1,r2
                    1E8F   7084 	C$ydrip.c$789$3$3 ==.
                           7085 ;	apps/ydrip/ydrip.c:789: IEN2 &= ~0x3F;
   24BE AA 9A              7086 	mov	r2,_IEN2
   24C0 53 02 C0           7087 	anl	ar2,#0xC0
   24C3 8A 9A              7088 	mov	_IEN2,r2
                    1E96   7089 	C$ydrip.c$791$3$3 ==.
                           7090 ;	apps/ydrip/ydrip.c:791: WORCTRL |= 0x04;  // Reset
   24C5 43 A2 04           7091 	orl	_WORCTRL,#0x04
                    1E99   7092 	C$ydrip.c$792$3$3 ==.
                           7093 ;	apps/ydrip/ydrip.c:792: temp = WORTIME0;
   24C8 AA A5              7094 	mov	r2,_WORTIME0
                    1E9B   7095 	C$ydrip.c$793$3$3 ==.
                           7096 ;	apps/ydrip/ydrip.c:793: while(temp == WORTIME0) {};
   24CA                    7097 00101$:
   24CA EA                 7098 	mov	a,r2
   24CB B5 A5 02           7099 	cjne	a,_WORTIME0,00136$
   24CE 80 FA              7100 	sjmp	00101$
   24D0                    7101 00136$:
                    1EA1   7102 	C$ydrip.c$794$1$1 ==.
                           7103 ;	apps/ydrip/ydrip.c:794: WOREVT1 = seconds >> 8;
   24D0 C0 03              7104 	push	ar3
   24D2 90 F3 85           7105 	mov	dptr,#_goToSleep_seconds_1_1
   24D5 E0                 7106 	movx	a,@dptr
   24D6 FB                 7107 	mov	r3,a
   24D7 A3                 7108 	inc	dptr
   24D8 E0                 7109 	movx	a,@dptr
   24D9 FC                 7110 	mov	r4,a
   24DA 8C A4              7111 	mov	_WOREVT1,r4
                    1EAD   7112 	C$ydrip.c$795$3$3 ==.
                           7113 ;	apps/ydrip/ydrip.c:795: WOREVT0 = seconds;
   24DC 8B A3              7114 	mov	_WOREVT0,r3
                    1EAF   7115 	C$ydrip.c$797$3$3 ==.
                           7116 ;	apps/ydrip/ydrip.c:797: temp = WORTIME0;
   24DE AA A5              7117 	mov	r2,_WORTIME0
                    1EB1   7118 	C$ydrip.c$843$1$1 ==.
                           7119 ;	apps/ydrip/ydrip.c:843: makeAllOutputs();
   24E0 D0 03              7120 	pop	ar3
                    1EB3   7121 	C$ydrip.c$798$3$3 ==.
                           7122 ;	apps/ydrip/ydrip.c:798: while(temp == WORTIME0) {};
   24E2                    7123 00104$:
   24E2 EA                 7124 	mov	a,r2
   24E3 B5 A5 02           7125 	cjne	a,_WORTIME0,00137$
   24E6 80 FA              7126 	sjmp	00104$
   24E8                    7127 00137$:
                    1EB9   7128 	C$ydrip.c$800$3$3 ==.
                           7129 ;	apps/ydrip/ydrip.c:800: MEMCTR |= 0x02;
   24E8 43 C7 02           7130 	orl	_MEMCTR,#0x02
                    1EBC   7131 	C$ydrip.c$801$3$3 ==.
                           7132 ;	apps/ydrip/ydrip.c:801: SLEEP = 0x06;
   24EB 75 BE 06           7133 	mov	_SLEEP,#0x06
                    1EBF   7134 	C$ydrip.c$802$3$3 ==.
                           7135 ;	apps/ydrip/ydrip.c:802: __asm nop __endasm;
   24EE 00                 7136 	 nop 
                    1EC0   7137 	C$ydrip.c$803$3$3 ==.
                           7138 ;	apps/ydrip/ydrip.c:803: __asm nop __endasm;
   24EF 00                 7139 	 nop 
                    1EC1   7140 	C$ydrip.c$804$3$3 ==.
                           7141 ;	apps/ydrip/ydrip.c:804: __asm nop __endasm;
   24F0 00                 7142 	 nop 
                    1EC2   7143 	C$ydrip.c$805$3$3 ==.
                           7144 ;	apps/ydrip/ydrip.c:805: if(SLEEP & 0x03){
   24F1 E5 BE              7145 	mov	a,_SLEEP
   24F3 54 03              7146 	anl	a,#0x03
   24F5 60 08              7147 	jz	00108$
                    1EC8   7148 	C$ydrip.c$806$4$6 ==.
                           7149 ;	apps/ydrip/ydrip.c:806: __asm mov 0xD7, #0x01 __endasm;
   24F7 75 D7 01           7150 	 mov 0xD7, #0x01 
                    1ECB   7151 	C$ydrip.c$807$4$6 ==.
                           7152 ;	apps/ydrip/ydrip.c:807: __asm nop __endasm;
   24FA 00                 7153 	 nop 
                    1ECC   7154 	C$ydrip.c$808$4$6 ==.
                           7155 ;	apps/ydrip/ydrip.c:808: __asm orl 0x87, #0x01 __endasm;
   24FB 43 87 01           7156 	 orl 0x87, #0x01 
                    1ECF   7157 	C$ydrip.c$809$4$6 ==.
                           7158 ;	apps/ydrip/ydrip.c:809: __asm nop __endasm;
   24FE 00                 7159 	 nop 
   24FF                    7160 00108$:
                    1ED0   7161 	C$ydrip.c$811$3$3 ==.
                           7162 ;	apps/ydrip/ydrip.c:811: IEN0 = storedIEN0;
   24FF 8B A8              7163 	mov	_IEN0,r3
                    1ED2   7164 	C$ydrip.c$812$3$3 ==.
                           7165 ;	apps/ydrip/ydrip.c:812: IEN1 = storedIEN1;
   2501 78 4B              7166 	mov	r0,#_goToSleep_storedIEN1_3_3
   2503 E2                 7167 	movx	a,@r0
   2504 F5 B8              7168 	mov	_IEN1,a
                    1ED7   7169 	C$ydrip.c$813$3$3 ==.
                           7170 ;	apps/ydrip/ydrip.c:813: IEN2 = storedIEN2;
   2506 78 4C              7171 	mov	r0,#_goToSleep_storedIEN2_3_3
   2508 E2                 7172 	movx	a,@r0
   2509 F5 9A              7173 	mov	_IEN2,a
                    1EDC   7174 	C$ydrip.c$814$3$3 ==.
                           7175 ;	apps/ydrip/ydrip.c:814: DMA0CFGH = storedDescHigh;
   250B 78 49              7176 	mov	r0,#_goToSleep_storedDescHigh_3_3
   250D E2                 7177 	movx	a,@r0
   250E F5 D5              7178 	mov	_DMA0CFGH,a
                    1EE1   7179 	C$ydrip.c$815$3$3 ==.
                           7180 ;	apps/ydrip/ydrip.c:815: DMA0CFGL = storedDescLow;
   2510 78 4A              7181 	mov	r0,#_goToSleep_storedDescLow_3_3
   2512 E2                 7182 	movx	a,@r0
   2513 F5 D4              7183 	mov	_DMA0CFGL,a
                    1EE6   7184 	C$ydrip.c$816$3$3 ==.
                           7185 ;	apps/ydrip/ydrip.c:816: if(storedDma0Armed){
   2515 30 07 03           7186 	jnb	_goToSleep_storedDma0Armed_3_3,00110$
                    1EE9   7187 	C$ydrip.c$817$4$7 ==.
                           7188 ;	apps/ydrip/ydrip.c:817: DMAARM |= 0x01;
   2518 43 D6 01           7189 	orl	_DMAARM,#0x01
   251B                    7190 00110$:
                    1EEC   7191 	C$ydrip.c$820$3$3 ==.
                           7192 ;	apps/ydrip/ydrip.c:820: boardClockInit();
   251B C0 07              7193 	push	ar7
   251D C0 06              7194 	push	ar6
   251F C0 05              7195 	push	ar5
   2521 12 40 C6           7196 	lcall	_boardClockInit
   2524 D0 05              7197 	pop	ar5
   2526 D0 06              7198 	pop	ar6
   2528 D0 07              7199 	pop	ar7
                    1EFB   7200 	C$ydrip.c$822$3$3 ==.
                           7201 ;	apps/ydrip/ydrip.c:822: PICTL = savedPICTL;
   252A 8F 8C              7202 	mov	_PICTL,r7
                    1EFD   7203 	C$ydrip.c$823$3$3 ==.
                           7204 ;	apps/ydrip/ydrip.c:823: P0IE = savedP0IE;
   252C A2 08              7205 	mov	c,_goToSleep_savedP0IE_3_3
   252E 92 BD              7206 	mov	_P0IE,c
                    1F01   7207 	C$ydrip.c$824$3$3 ==.
                           7208 ;	apps/ydrip/ydrip.c:824: P0SEL = savedP0SEL;
   2530 8E F3              7209 	mov	_P0SEL,r6
                    1F03   7210 	C$ydrip.c$825$3$3 ==.
                           7211 ;	apps/ydrip/ydrip.c:825: P0DIR = savedP0DIR;
   2532 8D FD              7212 	mov	_P0DIR,r5
                    1F05   7213 	C$ydrip.c$826$3$3 ==.
                           7214 ;	apps/ydrip/ydrip.c:826: P1SEL = savedP1SEL;
   2534 78 4D              7215 	mov	r0,#_goToSleep_savedP1SEL_3_3
   2536 E2                 7216 	movx	a,@r0
   2537 F5 F4              7217 	mov	_P1SEL,a
                    1F0A   7218 	C$ydrip.c$827$3$3 ==.
                           7219 ;	apps/ydrip/ydrip.c:827: P1DIR = savedP1DIR;
   2539 78 4E              7220 	mov	r0,#_goToSleep_savedP1DIR_3_3
   253B E2                 7221 	movx	a,@r0
   253C F5 FE              7222 	mov	_P1DIR,a
                    1F0F   7223 	C$ydrip.c$828$3$3 ==.
                           7224 ;	apps/ydrip/ydrip.c:828: USBPOW = 1;
   253E 90 DE 01           7225 	mov	dptr,#_USBPOW
   2541 74 01              7226 	mov	a,#0x01
   2543 F0                 7227 	movx	@dptr,a
                    1F15   7228 	C$ydrip.c$829$3$3 ==.
                           7229 ;	apps/ydrip/ydrip.c:829: USBCIE = 0b0111;
   2544 90 DE 0B           7230 	mov	dptr,#_USBCIE
   2547 74 07              7231 	mov	a,#0x07
   2549 F0                 7232 	movx	@dptr,a
   254A 02 25 DA           7233 	ljmp	00120$
   254D                    7234 00117$:
                    1F1E   7235 	C$ydrip.c$831$3$8 ==.
                           7236 ;	apps/ydrip/ydrip.c:831: uint32 start_waiting = getMs();
   254D 12 4C C3           7237 	lcall	_getMs
   2550 78 4F              7238 	mov	r0,#_goToSleep_start_waiting_3_8
   2552 C0 E0              7239 	push	acc
   2554 E5 82              7240 	mov	a,dpl
   2556 F2                 7241 	movx	@r0,a
   2557 08                 7242 	inc	r0
   2558 E5 83              7243 	mov	a,dph
   255A F2                 7244 	movx	@r0,a
   255B 08                 7245 	inc	r0
   255C E5 F0              7246 	mov	a,b
   255E F2                 7247 	movx	@r0,a
   255F D0 E0              7248 	pop	acc
   2561 08                 7249 	inc	r0
   2562 F2                 7250 	movx	@r0,a
                    1F34   7251 	C$ydrip.c$832$3$8 ==.
                           7252 ;	apps/ydrip/ydrip.c:832: if(!usbEnabled) {
   2563 20 06 0B           7253 	jb	_usbEnabled,00112$
                    1F37   7254 	C$ydrip.c$833$4$9 ==.
                           7255 ;	apps/ydrip/ydrip.c:833: usbDeviceState = USB_STATE_POWERED;
   2566 90 F8 9F           7256 	mov	dptr,#_usbDeviceState
   2569 74 02              7257 	mov	a,#0x02
   256B F0                 7258 	movx	@dptr,a
                    1F3D   7259 	C$ydrip.c$834$4$9 ==.
                           7260 ;	apps/ydrip/ydrip.c:834: enableUsbPullup();
   256C 12 41 8A           7261 	lcall	_enableUsbPullup
                    1F40   7262 	C$ydrip.c$835$4$9 ==.
                           7263 ;	apps/ydrip/ydrip.c:835: usbEnabled = 1;
   256F D2 06              7264 	setb	_usbEnabled
   2571                    7265 00112$:
                    1F42   7266 	C$ydrip.c$837$3$8 ==.
                           7267 ;	apps/ydrip/ydrip.c:837: delayMs(100);
   2571 90 00 64           7268 	mov	dptr,#0x0064
   2574 12 4C EF           7269 	lcall	_delayMs
                    1F48   7270 	C$ydrip.c$838$3$8 ==.
                           7271 ;	apps/ydrip/ydrip.c:838: while((getMs() - start_waiting) < (seconds * 1000)) {
   2577 90 F3 85           7272 	mov	dptr,#_goToSleep_seconds_1_1
   257A E0                 7273 	movx	a,@dptr
   257B FA                 7274 	mov	r2,a
   257C A3                 7275 	inc	dptr
   257D E0                 7276 	movx	a,@dptr
   257E FB                 7277 	mov	r3,a
   257F 78 B9              7278 	mov	r0,#__mulint_PARM_2
   2581 EA                 7279 	mov	a,r2
   2582 F2                 7280 	movx	@r0,a
   2583 08                 7281 	inc	r0
   2584 EB                 7282 	mov	a,r3
   2585 F2                 7283 	movx	@r0,a
   2586 90 03 E8           7284 	mov	dptr,#0x03E8
   2589 12 4A 94           7285 	lcall	__mulint
   258C 85 82 2E           7286 	mov	_goToSleep_sloc0_1_0,dpl
   258F 85 83 2F           7287 	mov	(_goToSleep_sloc0_1_0 + 1),dph
   2592                    7288 00113$:
   2592 12 4C C3           7289 	lcall	_getMs
   2595 AC 82              7290 	mov	r4,dpl
   2597 AD 83              7291 	mov	r5,dph
   2599 AE F0              7292 	mov	r6,b
   259B FF                 7293 	mov	r7,a
   259C 78 4F              7294 	mov	r0,#_goToSleep_start_waiting_3_8
   259E D3                 7295 	setb	c
   259F E2                 7296 	movx	a,@r0
   25A0 9C                 7297 	subb	a,r4
   25A1 F4                 7298 	cpl	a
   25A2 B3                 7299 	cpl	c
   25A3 F5 30              7300 	mov	_goToSleep_sloc1_1_0,a
   25A5 B3                 7301 	cpl	c
   25A6 08                 7302 	inc	r0
   25A7 E2                 7303 	movx	a,@r0
   25A8 9D                 7304 	subb	a,r5
   25A9 F4                 7305 	cpl	a
   25AA B3                 7306 	cpl	c
   25AB F5 31              7307 	mov	(_goToSleep_sloc1_1_0 + 1),a
   25AD B3                 7308 	cpl	c
   25AE 08                 7309 	inc	r0
   25AF E2                 7310 	movx	a,@r0
   25B0 9E                 7311 	subb	a,r6
   25B1 F4                 7312 	cpl	a
   25B2 B3                 7313 	cpl	c
   25B3 F5 32              7314 	mov	(_goToSleep_sloc1_1_0 + 2),a
   25B5 B3                 7315 	cpl	c
   25B6 08                 7316 	inc	r0
   25B7 E2                 7317 	movx	a,@r0
   25B8 9F                 7318 	subb	a,r7
   25B9 F4                 7319 	cpl	a
   25BA F5 33              7320 	mov	(_goToSleep_sloc1_1_0 + 3),a
   25BC AA 2E              7321 	mov	r2,_goToSleep_sloc0_1_0
   25BE E5 2F              7322 	mov	a,(_goToSleep_sloc0_1_0 + 1)
   25C0 FB                 7323 	mov	r3,a
   25C1 33                 7324 	rlc	a
   25C2 95 E0              7325 	subb	a,acc
   25C4 FE                 7326 	mov	r6,a
   25C5 FF                 7327 	mov	r7,a
   25C6 C3                 7328 	clr	c
   25C7 E5 30              7329 	mov	a,_goToSleep_sloc1_1_0
   25C9 9A                 7330 	subb	a,r2
   25CA E5 31              7331 	mov	a,(_goToSleep_sloc1_1_0 + 1)
   25CC 9B                 7332 	subb	a,r3
   25CD E5 32              7333 	mov	a,(_goToSleep_sloc1_1_0 + 2)
   25CF 9E                 7334 	subb	a,r6
   25D0 E5 33              7335 	mov	a,(_goToSleep_sloc1_1_0 + 3)
   25D2 9F                 7336 	subb	a,r7
   25D3 50 05              7337 	jnc	00120$
                    1FA6   7338 	C$ydrip.c$839$4$10 ==.
                           7339 ;	apps/ydrip/ydrip.c:839: doServices();
   25D5 12 09 B2           7340 	lcall	_doServices
   25D8 80 B8              7341 	sjmp	00113$
   25DA                    7342 00120$:
                    1FAB   7343 	C$ydrip.c$843$1$1 ==.
                           7344 ;	apps/ydrip/ydrip.c:843: makeAllOutputs();
   25DA 12 23 85           7345 	lcall	_makeAllOutputs
                    1FAE   7346 	C$ydrip.c$844$1$1 ==.
                    1FAE   7347 	XG$goToSleep$0$0 ==.
   25DD 22                 7348 	ret
                           7349 ;------------------------------------------------------------
                           7350 ;Allocation info for local variables in function 'putchar'
                           7351 ;------------------------------------------------------------
                           7352 ;c                         Allocated with name '_putchar_c_1_1'
                           7353 ;------------------------------------------------------------
                    1FAF   7354 	G$putchar$0$0 ==.
                    1FAF   7355 	C$ydrip.c$847$1$1 ==.
                           7356 ;	apps/ydrip/ydrip.c:847: void putchar(XDATA char c) {
                           7357 ;	-----------------------------------------
                           7358 ;	 function putchar
                           7359 ;	-----------------------------------------
   25DE                    7360 _putchar:
   25DE E5 82              7361 	mov	a,dpl
   25E0 90 F3 87           7362 	mov	dptr,#_putchar_c_1_1
   25E3 F0                 7363 	movx	@dptr,a
                    1FB5   7364 	C$ydrip.c$848$1$1 ==.
                           7365 ;	apps/ydrip/ydrip.c:848: while(uart1TxAvailable() == 0) {								//  Loop until space in the TX buffer to send a character
   25E4                    7366 00101$:
   25E4 12 2D BB           7367 	lcall	_uart1TxAvailable
   25E7 E5 82              7368 	mov	a,dpl
   25E9 70 08              7369 	jnz	00103$
                    1FBC   7370 	C$ydrip.c$849$3$3 ==.
                           7371 ;	apps/ydrip/ydrip.c:849: LED_RED(1);													// Error Indicator
   25EB 43 FF 02           7372 	orl	_P2DIR,#0x02
                    1FBF   7373 	C$ydrip.c$850$2$2 ==.
                           7374 ;	apps/ydrip/ydrip.c:850: boardService();
   25EE 12 40 C2           7375 	lcall	_boardService
   25F1 80 F1              7376 	sjmp	00101$
   25F3                    7377 00103$:
                    1FC4   7378 	C$ydrip.c$853$1$1 ==.
                           7379 ;	apps/ydrip/ydrip.c:853: uart1TxSendByte(c);
   25F3 90 F3 87           7380 	mov	dptr,#_putchar_c_1_1
   25F6 E0                 7381 	movx	a,@dptr
   25F7 FF                 7382 	mov	r7,a
   25F8 F5 82              7383 	mov	dpl,a
   25FA C0 07              7384 	push	ar7
   25FC 12 2D F6           7385 	lcall	_uart1TxSendByte
                    1FD0   7386 	C$ydrip.c$855$1$1 ==.
                           7387 ;	apps/ydrip/ydrip.c:855: if (usbPowerPresent()) {
   25FF 12 41 79           7388 	lcall	_usbPowerPresent
   2602 D0 07              7389 	pop	ar7
   2604 50 1C              7390 	jnc	00108$
                    1FD7   7391 	C$ydrip.c$856$2$4 ==.
                           7392 ;	apps/ydrip/ydrip.c:856: while(usbComTxAvailable() == 0) {							//  Loop until space in the TX buffer to send a character
   2606                    7393 00104$:
   2606 C0 07              7394 	push	ar7
   2608 12 39 92           7395 	lcall	_usbComTxAvailable
   260B E5 82              7396 	mov	a,dpl
   260D D0 07              7397 	pop	ar7
   260F 70 09              7398 	jnz	00106$
                    1FE2   7399 	C$ydrip.c$858$3$5 ==.
                           7400 ;	apps/ydrip/ydrip.c:858: boardService();
   2611 C0 07              7401 	push	ar7
   2613 12 40 C2           7402 	lcall	_boardService
   2616 D0 07              7403 	pop	ar7
   2618 80 EC              7404 	sjmp	00104$
   261A                    7405 00106$:
                    1FEB   7406 	C$ydrip.c$860$2$4 ==.
                           7407 ;	apps/ydrip/ydrip.c:860: usbComTxSendByte(c);
   261A 8F 82              7408 	mov	dpl,r7
   261C 12 3A 24           7409 	lcall	_usbComTxSendByte
                    1FF0   7410 	C$ydrip.c$861$2$4 ==.
                           7411 ;	apps/ydrip/ydrip.c:861: boardService();
   261F 12 40 C2           7412 	lcall	_boardService
   2622                    7413 00108$:
                    1FF3   7414 	C$ydrip.c$864$2$6 ==.
                           7415 ;	apps/ydrip/ydrip.c:864: LED_RED(0);														// Error gone
   2622 AF FF              7416 	mov	r7,_P2DIR
   2624 53 07 FD           7417 	anl	ar7,#0xFD
   2627 8F FF              7418 	mov	_P2DIR,r7
                    1FFA   7419 	C$ydrip.c$865$2$6 ==.
                    1FFA   7420 	XG$putchar$0$0 ==.
   2629 22                 7421 	ret
                           7422 ;------------------------------------------------------------
                           7423 ;Allocation info for local variables in function 'printfUSB'
                           7424 ;------------------------------------------------------------
                           7425 ;length                    Allocated with name '_printfUSB_length_1_1'
                           7426 ;i                         Allocated with name '_printfUSB_i_1_1'
                           7427 ;------------------------------------------------------------
                    1FFB   7428 	G$printfUSB$0$0 ==.
                    1FFB   7429 	C$ydrip.c$868$2$6 ==.
                           7430 ;	apps/ydrip/ydrip.c:868: void printfUSB(char * stringForUSB) {
                           7431 ;	-----------------------------------------
                           7432 ;	 function printfUSB
                           7433 ;	-----------------------------------------
   262A                    7434 _printfUSB:
   262A AD 82              7435 	mov	r5,dpl
   262C AE 83              7436 	mov	r6,dph
   262E AF F0              7437 	mov	r7,b
                    2001   7438 	C$ydrip.c$871$1$1 ==.
                           7439 ;	apps/ydrip/ydrip.c:871: if (usbPowerPresent()) {
   2630 C0 07              7440 	push	ar7
   2632 C0 06              7441 	push	ar6
   2634 C0 05              7442 	push	ar5
   2636 12 41 79           7443 	lcall	_usbPowerPresent
   2639 D0 05              7444 	pop	ar5
   263B D0 06              7445 	pop	ar6
   263D D0 07              7446 	pop	ar7
   263F 40 03              7447 	jc	00117$
   2641 02 26 EE           7448 	ljmp	00110$
   2644                    7449 00117$:
                    2015   7450 	C$ydrip.c$872$2$2 ==.
                           7451 ;	apps/ydrip/ydrip.c:872: length = strlen(stringForUSB);
   2644 8D 82              7452 	mov	dpl,r5
   2646 8E 83              7453 	mov	dph,r6
   2648 8F F0              7454 	mov	b,r7
   264A C0 07              7455 	push	ar7
   264C C0 06              7456 	push	ar6
   264E C0 05              7457 	push	ar5
   2650 12 58 09           7458 	lcall	_strlen
   2653 AB 82              7459 	mov	r3,dpl
   2655 D0 05              7460 	pop	ar5
   2657 D0 06              7461 	pop	ar6
   2659 D0 07              7462 	pop	ar7
                    202C   7463 	C$ydrip.c$873$2$2 ==.
                           7464 ;	apps/ydrip/ydrip.c:873: stringForUSB[length++] = ('/r');
   265B EB                 7465 	mov	a,r3
   265C 04                 7466 	inc	a
   265D FC                 7467 	mov	r4,a
   265E EB                 7468 	mov	a,r3
   265F 2D                 7469 	add	a,r5
   2660 F8                 7470 	mov	r0,a
   2661 E4                 7471 	clr	a
   2662 3E                 7472 	addc	a,r6
   2663 F9                 7473 	mov	r1,a
   2664 8F 02              7474 	mov	ar2,r7
   2666 88 82              7475 	mov	dpl,r0
   2668 89 83              7476 	mov	dph,r1
   266A 8A F0              7477 	mov	b,r2
   266C 74 2F              7478 	mov	a,#0x2F
   266E 12 37 7E           7479 	lcall	__gptrput
                    2042   7480 	C$ydrip.c$874$2$2 ==.
                           7481 ;	apps/ydrip/ydrip.c:874: stringForUSB[length++] = ('/n');
   2671 0B                 7482 	inc	r3
   2672 0B                 7483 	inc	r3
   2673 EC                 7484 	mov	a,r4
   2674 2D                 7485 	add	a,r5
   2675 F9                 7486 	mov	r1,a
   2676 E4                 7487 	clr	a
   2677 3E                 7488 	addc	a,r6
   2678 FA                 7489 	mov	r2,a
   2679 8F 04              7490 	mov	ar4,r7
   267B 89 82              7491 	mov	dpl,r1
   267D 8A 83              7492 	mov	dph,r2
   267F 8C F0              7493 	mov	b,r4
   2681 74 2F              7494 	mov	a,#0x2F
   2683 12 37 7E           7495 	lcall	__gptrput
                    2057   7496 	C$ydrip.c$876$2$1 ==.
                           7497 ;	apps/ydrip/ydrip.c:876: for(i = 0; i < length; ++i) {
   2686 7C 00              7498 	mov	r4,#0x00
   2688                    7499 00106$:
   2688 C3                 7500 	clr	c
   2689 EC                 7501 	mov	a,r4
   268A 9B                 7502 	subb	a,r3
   268B 50 61              7503 	jnc	00110$
                    205E   7504 	C$ydrip.c$877$3$3 ==.
                           7505 ;	apps/ydrip/ydrip.c:877: while(usbComTxAvailable() == 0) {							//  Loop until space in the TX buffer to send each character
   268D                    7506 00101$:
   268D C0 07              7507 	push	ar7
   268F C0 06              7508 	push	ar6
   2691 C0 05              7509 	push	ar5
   2693 C0 04              7510 	push	ar4
   2695 C0 03              7511 	push	ar3
   2697 12 39 92           7512 	lcall	_usbComTxAvailable
   269A E5 82              7513 	mov	a,dpl
   269C D0 03              7514 	pop	ar3
   269E D0 04              7515 	pop	ar4
   26A0 D0 05              7516 	pop	ar5
   26A2 D0 06              7517 	pop	ar6
   26A4 D0 07              7518 	pop	ar7
   26A6 70 19              7519 	jnz	00103$
                    2079   7520 	C$ydrip.c$878$4$4 ==.
                           7521 ;	apps/ydrip/ydrip.c:878: doServices();
   26A8 C0 07              7522 	push	ar7
   26AA C0 06              7523 	push	ar6
   26AC C0 05              7524 	push	ar5
   26AE C0 04              7525 	push	ar4
   26B0 C0 03              7526 	push	ar3
   26B2 12 09 B2           7527 	lcall	_doServices
   26B5 D0 03              7528 	pop	ar3
   26B7 D0 04              7529 	pop	ar4
   26B9 D0 05              7530 	pop	ar5
   26BB D0 06              7531 	pop	ar6
   26BD D0 07              7532 	pop	ar7
   26BF 80 CC              7533 	sjmp	00101$
   26C1                    7534 00103$:
                    2092   7535 	C$ydrip.c$880$3$3 ==.
                           7536 ;	apps/ydrip/ydrip.c:880: usbComTxSendByte(stringForUSB[i]);		
   26C1 EC                 7537 	mov	a,r4
   26C2 2D                 7538 	add	a,r5
   26C3 F8                 7539 	mov	r0,a
   26C4 E4                 7540 	clr	a
   26C5 3E                 7541 	addc	a,r6
   26C6 F9                 7542 	mov	r1,a
   26C7 8F 02              7543 	mov	ar2,r7
   26C9 88 82              7544 	mov	dpl,r0
   26CB 89 83              7545 	mov	dph,r1
   26CD 8A F0              7546 	mov	b,r2
   26CF 12 5B FF           7547 	lcall	__gptrget
   26D2 F5 82              7548 	mov	dpl,a
   26D4 C0 07              7549 	push	ar7
   26D6 C0 06              7550 	push	ar6
   26D8 C0 05              7551 	push	ar5
   26DA C0 04              7552 	push	ar4
   26DC C0 03              7553 	push	ar3
   26DE 12 3A 24           7554 	lcall	_usbComTxSendByte
   26E1 D0 03              7555 	pop	ar3
   26E3 D0 04              7556 	pop	ar4
   26E5 D0 05              7557 	pop	ar5
   26E7 D0 06              7558 	pop	ar6
   26E9 D0 07              7559 	pop	ar7
                    20BC   7560 	C$ydrip.c$876$2$2 ==.
                           7561 ;	apps/ydrip/ydrip.c:876: for(i = 0; i < length; ++i) {
   26EB 0C                 7562 	inc	r4
   26EC 80 9A              7563 	sjmp	00106$
   26EE                    7564 00110$:
                    20BF   7565 	C$ydrip.c$885$2$1 ==.
                    20BF   7566 	XG$printfUSB$0$0 ==.
   26EE 22                 7567 	ret
                           7568 ;------------------------------------------------------------
                           7569 ;Allocation info for local variables in function 'swap_channel'
                           7570 ;------------------------------------------------------------
                           7571 ;newFSCTRL0                Allocated with name '_swap_channel_PARM_2'
                           7572 ;channel                   Allocated with name '_swap_channel_channel_1_1'
                           7573 ;------------------------------------------------------------
                    20C0   7574 	G$swap_channel$0$0 ==.
                    20C0   7575 	C$ydrip.c$888$2$1 ==.
                           7576 ;	apps/ydrip/ydrip.c:888: void swap_channel(XDATA uint8 channel, XDATA uint8 newFSCTRL0) {
                           7577 ;	-----------------------------------------
                           7578 ;	 function swap_channel
                           7579 ;	-----------------------------------------
   26EF                    7580 _swap_channel:
   26EF E5 82              7581 	mov	a,dpl
   26F1 90 F3 89           7582 	mov	dptr,#_swap_channel_channel_1_1
   26F4 F0                 7583 	movx	@dptr,a
                    20C6   7584 	C$ydrip.c$889$1$1 ==.
                           7585 ;	apps/ydrip/ydrip.c:889: do {
   26F5                    7586 00101$:
                    20C6   7587 	C$ydrip.c$890$2$2 ==.
                           7588 ;	apps/ydrip/ydrip.c:890: RFST = 4;   //SIDLE
   26F5 75 E1 04           7589 	mov	_RFST,#0x04
                    20C9   7590 	C$ydrip.c$891$1$1 ==.
                           7591 ;	apps/ydrip/ydrip.c:891: } while (MARCSTATE != 0x01);
   26F8 90 DF 3B           7592 	mov	dptr,#_MARCSTATE
   26FB E0                 7593 	movx	a,@dptr
   26FC FF                 7594 	mov	r7,a
   26FD BF 01 F5           7595 	cjne	r7,#0x01,00101$
                    20D1   7596 	C$ydrip.c$893$1$1 ==.
                           7597 ;	apps/ydrip/ydrip.c:893: FSCTRL0 = newFSCTRL0;
   2700 90 F3 88           7598 	mov	dptr,#_swap_channel_PARM_2
   2703 E0                 7599 	movx	a,@dptr
   2704 90 DF 08           7600 	mov	dptr,#_FSCTRL0
   2707 F0                 7601 	movx	@dptr,a
                    20D9   7602 	C$ydrip.c$894$1$1 ==.
                           7603 ;	apps/ydrip/ydrip.c:894: CHANNR = channel;
   2708 90 F3 89           7604 	mov	dptr,#_swap_channel_channel_1_1
   270B E0                 7605 	movx	a,@dptr
   270C 90 DF 06           7606 	mov	dptr,#_CHANNR
   270F F0                 7607 	movx	@dptr,a
                    20E1   7608 	C$ydrip.c$895$1$1 ==.
                           7609 ;	apps/ydrip/ydrip.c:895: RFST = 2;   //RX
   2710 75 E1 02           7610 	mov	_RFST,#0x02
                    20E4   7611 	C$ydrip.c$896$1$1 ==.
                    20E4   7612 	XG$swap_channel$0$0 ==.
   2713 22                 7613 	ret
                           7614 ;------------------------------------------------------------
                           7615 ;Allocation info for local variables in function 'strobe_radio'
                           7616 ;------------------------------------------------------------
                    20E5   7617 	G$strobe_radio$0$0 ==.
                    20E5   7618 	C$ydrip.c$898$1$1 ==.
                           7619 ;	apps/ydrip/ydrip.c:898: void strobe_radio(int radio_chan) {
                           7620 ;	-----------------------------------------
                           7621 ;	 function strobe_radio
                           7622 ;	-----------------------------------------
   2714                    7623 _strobe_radio:
   2714 AE 82              7624 	mov	r6,dpl
   2716 AF 83              7625 	mov	r7,dph
                    20E9   7626 	C$ydrip.c$899$1$1 ==.
                           7627 ;	apps/ydrip/ydrip.c:899: radioMacInit();
   2718 C0 07              7628 	push	ar7
   271A C0 06              7629 	push	ar6
   271C 12 31 25           7630 	lcall	_radioMacInit
                    20F0   7631 	C$ydrip.c$900$1$1 ==.
                           7632 ;	apps/ydrip/ydrip.c:900: MCSM1 = 0;
   271F 90 DF 13           7633 	mov	dptr,#_MCSM1
   2722 E4                 7634 	clr	a
   2723 F0                 7635 	movx	@dptr,a
                    20F5   7636 	C$ydrip.c$901$1$1 ==.
                           7637 ;	apps/ydrip/ydrip.c:901: radioMacStrobe();
   2724 12 30 E7           7638 	lcall	_radioMacStrobe
   2727 D0 06              7639 	pop	ar6
   2729 D0 07              7640 	pop	ar7
                    20FC   7641 	C$ydrip.c$902$1$1 ==.
                           7642 ;	apps/ydrip/ydrip.c:902: swap_channel(nChannels[radio_chan], fOffset[radio_chan]);
   272B EE                 7643 	mov	a,r6
   272C 24 06              7644 	add	a,#_nChannels
   272E F9                 7645 	mov	r1,a
   272F E3                 7646 	movx	a,@r1
   2730 FD                 7647 	mov	r5,a
   2731 EE                 7648 	mov	a,r6
   2732 24 02              7649 	add	a,#_fOffset
   2734 F9                 7650 	mov	r1,a
   2735 E3                 7651 	movx	a,@r1
   2736 90 F3 88           7652 	mov	dptr,#_swap_channel_PARM_2
   2739 F0                 7653 	movx	@dptr,a
   273A 8D 82              7654 	mov	dpl,r5
   273C 12 26 EF           7655 	lcall	_swap_channel
                    2110   7656 	C$ydrip.c$903$1$1 ==.
                    2110   7657 	XG$strobe_radio$0$0 ==.
   273F 22                 7658 	ret
                           7659 ;------------------------------------------------------------
                           7660 ;Allocation info for local variables in function 'WaitForPacket'
                           7661 ;------------------------------------------------------------
                           7662 ;sloc0                     Allocated with name '_WaitForPacket_sloc0_1_0'
                           7663 ;sloc1                     Allocated with name '_WaitForPacket_sloc1_1_0'
                           7664 ;sloc2                     Allocated with name '_WaitForPacket_sloc2_1_0'
                           7665 ;sloc3                     Allocated with name '_WaitForPacket_sloc3_1_0'
                           7666 ;sloc4                     Allocated with name '_WaitForPacket_sloc4_1_0'
                           7667 ;sloc5                     Allocated with name '_WaitForPacket_sloc5_1_0'
                           7668 ;channel                   Allocated with name '_WaitForPacket_PARM_3'
                           7669 ;milliseconds              Allocated with name '_WaitForPacket_milliseconds_1_1'
                           7670 ;start                     Allocated with name '_WaitForPacket_start_1_1'
                           7671 ;i                         Allocated with name '_WaitForPacket_i_1_1'
                           7672 ;six_minutes               Allocated with name '_WaitForPacket_six_minutes_1_1'
                           7673 ;nRet                      Allocated with name '_WaitForPacket_nRet_1_1'
                           7674 ;transID                   Allocated with name '_WaitForPacket_transID_1_1'
                           7675 ;------------------------------------------------------------
                    2111   7676 	G$WaitForPacket$0$0 ==.
                    2111   7677 	C$ydrip.c$905$1$1 ==.
                           7678 ;	apps/ydrip/ydrip.c:905: int WaitForPacket(XDATA uint16 milliseconds, Dexcom_packet* pkt, XDATA uint8 channel) {
                           7679 ;	-----------------------------------------
                           7680 ;	 function WaitForPacket
                           7681 ;	-----------------------------------------
   2740                    7682 _WaitForPacket:
   2740 AF 83              7683 	mov	r7,dph
   2742 E5 82              7684 	mov	a,dpl
   2744 90 F3 8B           7685 	mov	dptr,#_WaitForPacket_milliseconds_1_1
   2747 F0                 7686 	movx	@dptr,a
   2748 A3                 7687 	inc	dptr
   2749 EF                 7688 	mov	a,r7
   274A F0                 7689 	movx	@dptr,a
                    211C   7690 	C$ydrip.c$906$1$1 ==.
                           7691 ;	apps/ydrip/ydrip.c:906: XDATA uint32 start = getMs();
   274B 12 4C C3           7692 	lcall	_getMs
   274E 85 82 3F           7693 	mov	_WaitForPacket_sloc4_1_0,dpl
   2751 85 83 40           7694 	mov	(_WaitForPacket_sloc4_1_0 + 1),dph
   2754 85 F0 41           7695 	mov	(_WaitForPacket_sloc4_1_0 + 2),b
   2757 F5 42              7696 	mov	(_WaitForPacket_sloc4_1_0 + 3),a
                    212A   7697 	C$ydrip.c$909$1$1 ==.
                           7698 ;	apps/ydrip/ydrip.c:909: XDATA uint32 six_minutes = 360000;
   2759 90 F3 8D           7699 	mov	dptr,#_WaitForPacket_six_minutes_1_1
   275C 74 40              7700 	mov	a,#0x40
   275E F0                 7701 	movx	@dptr,a
   275F A3                 7702 	inc	dptr
   2760 74 7E              7703 	mov	a,#0x7E
   2762 F0                 7704 	movx	@dptr,a
   2763 A3                 7705 	inc	dptr
   2764 74 05              7706 	mov	a,#0x05
   2766 F0                 7707 	movx	@dptr,a
   2767 A3                 7708 	inc	dptr
   2768 E4                 7709 	clr	a
   2769 F0                 7710 	movx	@dptr,a
                    213B   7711 	C$ydrip.c$912$1$1 ==.
                           7712 ;	apps/ydrip/ydrip.c:912: XDATA char transID[] = "BLANK"; 	// Line added
   276A 90 F3 91           7713 	mov	dptr,#_WaitForPacket_transID_1_1
   276D 74 42              7714 	mov	a,#0x42
   276F F0                 7715 	movx	@dptr,a
   2770 90 F3 92           7716 	mov	dptr,#(_WaitForPacket_transID_1_1 + 0x0001)
   2773 74 4C              7717 	mov	a,#0x4C
   2775 F0                 7718 	movx	@dptr,a
   2776 90 F3 93           7719 	mov	dptr,#(_WaitForPacket_transID_1_1 + 0x0002)
   2779 74 41              7720 	mov	a,#0x41
   277B F0                 7721 	movx	@dptr,a
   277C 90 F3 94           7722 	mov	dptr,#(_WaitForPacket_transID_1_1 + 0x0003)
   277F 74 4E              7723 	mov	a,#0x4E
   2781 F0                 7724 	movx	@dptr,a
   2782 90 F3 95           7725 	mov	dptr,#(_WaitForPacket_transID_1_1 + 0x0004)
   2785 74 4B              7726 	mov	a,#0x4B
   2787 F0                 7727 	movx	@dptr,a
   2788 90 F3 96           7728 	mov	dptr,#(_WaitForPacket_transID_1_1 + 0x0005)
   278B E4                 7729 	clr	a
   278C F0                 7730 	movx	@dptr,a
                    215E   7731 	C$ydrip.c$913$1$1 ==.
                           7732 ;	apps/ydrip/ydrip.c:913: swap_channel(nChannels[channel], fOffset[channel]);
   278D 90 F3 8A           7733 	mov	dptr,#_WaitForPacket_PARM_3
   2790 E0                 7734 	movx	a,@dptr
   2791 FB                 7735 	mov	r3,a
   2792 24 06              7736 	add	a,#_nChannels
   2794 F9                 7737 	mov	r1,a
   2795 E3                 7738 	movx	a,@r1
   2796 F5 34              7739 	mov	_WaitForPacket_sloc0_1_0,a
   2798 EB                 7740 	mov	a,r3
   2799 24 02              7741 	add	a,#_fOffset
   279B F9                 7742 	mov	r1,a
   279C E3                 7743 	movx	a,@r1
   279D 90 F3 88           7744 	mov	dptr,#_swap_channel_PARM_2
   27A0 F0                 7745 	movx	@dptr,a
   27A1 85 34 82           7746 	mov	dpl,_WaitForPacket_sloc0_1_0
   27A4 C0 03              7747 	push	ar3
   27A6 12 26 EF           7748 	lcall	_swap_channel
   27A9 D0 03              7749 	pop	ar3
                    217C   7750 	C$ydrip.c$914$1$1 ==.
                           7751 ;	apps/ydrip/ydrip.c:914: if (debug_mode) six_minutes = 3000;
   27AB 30 03 0F           7752 	jnb	_debug_mode,00126$
   27AE 90 F3 8D           7753 	mov	dptr,#_WaitForPacket_six_minutes_1_1
   27B1 74 B8              7754 	mov	a,#0xB8
   27B3 F0                 7755 	movx	@dptr,a
   27B4 A3                 7756 	inc	dptr
   27B5 74 0B              7757 	mov	a,#0x0B
   27B7 F0                 7758 	movx	@dptr,a
   27B8 A3                 7759 	inc	dptr
   27B9 E4                 7760 	clr	a
   27BA F0                 7761 	movx	@dptr,a
   27BB A3                 7762 	inc	dptr
   27BC F0                 7763 	movx	@dptr,a
                    218E   7764 	C$ydrip.c$917$1$1 ==.
                           7765 ;	apps/ydrip/ydrip.c:917: while (!milliseconds || (getMs() - start) < milliseconds) {
   27BD                    7766 00126$:
   27BD 90 F3 8D           7767 	mov	dptr,#_WaitForPacket_six_minutes_1_1
   27C0 E0                 7768 	movx	a,@dptr
   27C1 F5 35              7769 	mov	_WaitForPacket_sloc1_1_0,a
   27C3 A3                 7770 	inc	dptr
   27C4 E0                 7771 	movx	a,@dptr
   27C5 F5 36              7772 	mov	(_WaitForPacket_sloc1_1_0 + 1),a
   27C7 A3                 7773 	inc	dptr
   27C8 E0                 7774 	movx	a,@dptr
   27C9 F5 37              7775 	mov	(_WaitForPacket_sloc1_1_0 + 2),a
   27CB A3                 7776 	inc	dptr
   27CC E0                 7777 	movx	a,@dptr
   27CD F5 38              7778 	mov	(_WaitForPacket_sloc1_1_0 + 3),a
   27CF 90 F3 8B           7779 	mov	dptr,#_WaitForPacket_milliseconds_1_1
   27D2 E0                 7780 	movx	a,@dptr
   27D3 F5 39              7781 	mov	_WaitForPacket_sloc2_1_0,a
   27D5 A3                 7782 	inc	dptr
   27D6 E0                 7783 	movx	a,@dptr
   27D7 F5 3A              7784 	mov	(_WaitForPacket_sloc2_1_0 + 1),a
   27D9 E4                 7785 	clr	a
   27DA F5 3B              7786 	mov	_WaitForPacket_sloc3_1_0,a
   27DC F5 3C              7787 	mov	(_WaitForPacket_sloc3_1_0 + 1),a
   27DE F5 3D              7788 	mov	(_WaitForPacket_sloc3_1_0 + 2),a
   27E0 F5 3E              7789 	mov	(_WaitForPacket_sloc3_1_0 + 3),a
   27E2                    7790 00117$:
   27E2 E5 39              7791 	mov	a,_WaitForPacket_sloc2_1_0
   27E4 45 3A              7792 	orl	a,(_WaitForPacket_sloc2_1_0 + 1)
   27E6 60 3D              7793 	jz	00118$
   27E8 C0 03              7794 	push	ar3
   27EA 12 4C C3           7795 	lcall	_getMs
   27ED AA 82              7796 	mov	r2,dpl
   27EF AB 83              7797 	mov	r3,dph
   27F1 AE F0              7798 	mov	r6,b
   27F3 FF                 7799 	mov	r7,a
   27F4 EA                 7800 	mov	a,r2
   27F5 C3                 7801 	clr	c
   27F6 95 3F              7802 	subb	a,_WaitForPacket_sloc4_1_0
   27F8 F5 43              7803 	mov	_WaitForPacket_sloc5_1_0,a
   27FA EB                 7804 	mov	a,r3
   27FB 95 40              7805 	subb	a,(_WaitForPacket_sloc4_1_0 + 1)
   27FD F5 44              7806 	mov	(_WaitForPacket_sloc5_1_0 + 1),a
   27FF EE                 7807 	mov	a,r6
   2800 95 41              7808 	subb	a,(_WaitForPacket_sloc4_1_0 + 2)
   2802 F5 45              7809 	mov	(_WaitForPacket_sloc5_1_0 + 2),a
   2804 EF                 7810 	mov	a,r7
   2805 95 42              7811 	subb	a,(_WaitForPacket_sloc4_1_0 + 3)
   2807 F5 46              7812 	mov	(_WaitForPacket_sloc5_1_0 + 3),a
   2809 AC 39              7813 	mov	r4,_WaitForPacket_sloc2_1_0
   280B AD 3A              7814 	mov	r5,(_WaitForPacket_sloc2_1_0 + 1)
   280D 7E 00              7815 	mov	r6,#0x00
   280F 7F 00              7816 	mov	r7,#0x00
   2811 C3                 7817 	clr	c
   2812 E5 43              7818 	mov	a,_WaitForPacket_sloc5_1_0
   2814 9C                 7819 	subb	a,r4
   2815 E5 44              7820 	mov	a,(_WaitForPacket_sloc5_1_0 + 1)
   2817 9D                 7821 	subb	a,r5
   2818 E5 45              7822 	mov	a,(_WaitForPacket_sloc5_1_0 + 2)
   281A 9E                 7823 	subb	a,r6
   281B E5 46              7824 	mov	a,(_WaitForPacket_sloc5_1_0 + 3)
   281D 9F                 7825 	subb	a,r7
   281E D0 03              7826 	pop	ar3
   2820 40 03              7827 	jc	00132$
   2822 02 29 DD           7828 	ljmp	00119$
   2825                    7829 00132$:
   2825                    7830 00118$:
                    21F6   7831 	C$ydrip.c$918$2$2 ==.
                           7832 ;	apps/ydrip/ydrip.c:918: doServices();
   2825 C0 03              7833 	push	ar3
   2827 12 09 B2           7834 	lcall	_doServices
                    21FB   7835 	C$ydrip.c$919$2$2 ==.
                           7836 ;	apps/ydrip/ydrip.c:919: blink_yellow_led();
   282A 12 06 82           7837 	lcall	_blink_yellow_led
   282D D0 03              7838 	pop	ar3
                    2200   7839 	C$ydrip.c$920$2$2 ==.
                           7840 ;	apps/ydrip/ydrip.c:920: i++;
   282F 05 3B              7841 	inc	_WaitForPacket_sloc3_1_0
   2831 E4                 7842 	clr	a
   2832 B5 3B 0C           7843 	cjne	a,_WaitForPacket_sloc3_1_0,00133$
   2835 05 3C              7844 	inc	(_WaitForPacket_sloc3_1_0 + 1)
   2837 B5 3C 07           7845 	cjne	a,(_WaitForPacket_sloc3_1_0 + 1),00133$
   283A 05 3D              7846 	inc	(_WaitForPacket_sloc3_1_0 + 2)
   283C B5 3D 02           7847 	cjne	a,(_WaitForPacket_sloc3_1_0 + 2),00133$
   283F 05 3E              7848 	inc	(_WaitForPacket_sloc3_1_0 + 3)
   2841                    7849 00133$:
                    2212   7850 	C$ydrip.c$921$1$1 ==.
                           7851 ;	apps/ydrip/ydrip.c:921: if(!(i % 40000)) {
   2841 78 58              7852 	mov	r0,#__modulong_PARM_2
   2843 74 40              7853 	mov	a,#0x40
   2845 F2                 7854 	movx	@r0,a
   2846 08                 7855 	inc	r0
   2847 74 9C              7856 	mov	a,#0x9C
   2849 F2                 7857 	movx	@r0,a
   284A 08                 7858 	inc	r0
   284B E4                 7859 	clr	a
   284C F2                 7860 	movx	@r0,a
   284D 08                 7861 	inc	r0
   284E F2                 7862 	movx	@r0,a
   284F 85 3B 82           7863 	mov	dpl,_WaitForPacket_sloc3_1_0
   2852 85 3C 83           7864 	mov	dph,(_WaitForPacket_sloc3_1_0 + 1)
   2855 85 3D F0           7865 	mov	b,(_WaitForPacket_sloc3_1_0 + 2)
   2858 E5 3E              7866 	mov	a,(_WaitForPacket_sloc3_1_0 + 3)
   285A C0 03              7867 	push	ar3
   285C 12 2E E3           7868 	lcall	__modulong
   285F AC 82              7869 	mov	r4,dpl
   2861 AD 83              7870 	mov	r5,dph
   2863 AE F0              7871 	mov	r6,b
   2865 FF                 7872 	mov	r7,a
   2866 D0 03              7873 	pop	ar3
   2868 EC                 7874 	mov	a,r4
   2869 4D                 7875 	orl	a,r5
   286A 4E                 7876 	orl	a,r6
   286B 4F                 7877 	orl	a,r7
                    223D   7878 	C$ydrip.c$922$3$3 ==.
                           7879 ;	apps/ydrip/ydrip.c:922: strobe_radio(channel);
   286C 70 0E              7880 	jnz	00104$
   286E 8B 06              7881 	mov	ar6,r3
   2870 FF                 7882 	mov	r7,a
   2871 8E 82              7883 	mov	dpl,r6
   2873 8F 83              7884 	mov	dph,r7
   2875 C0 03              7885 	push	ar3
   2877 12 27 14           7886 	lcall	_strobe_radio
   287A D0 03              7887 	pop	ar3
   287C                    7888 00104$:
                    224D   7889 	C$ydrip.c$924$2$2 ==.
                           7890 ;	apps/ydrip/ydrip.c:924: if(getMs() - start > six_minutes) {
   287C C0 03              7891 	push	ar3
   287E 12 4C C3           7892 	lcall	_getMs
   2881 AC 82              7893 	mov	r4,dpl
   2883 AD 83              7894 	mov	r5,dph
   2885 AE F0              7895 	mov	r6,b
   2887 FF                 7896 	mov	r7,a
   2888 D0 03              7897 	pop	ar3
   288A EC                 7898 	mov	a,r4
   288B C3                 7899 	clr	c
   288C 95 3F              7900 	subb	a,_WaitForPacket_sloc4_1_0
   288E FC                 7901 	mov	r4,a
   288F ED                 7902 	mov	a,r5
   2890 95 40              7903 	subb	a,(_WaitForPacket_sloc4_1_0 + 1)
   2892 FD                 7904 	mov	r5,a
   2893 EE                 7905 	mov	a,r6
   2894 95 41              7906 	subb	a,(_WaitForPacket_sloc4_1_0 + 2)
   2896 FE                 7907 	mov	r6,a
   2897 EF                 7908 	mov	a,r7
   2898 95 42              7909 	subb	a,(_WaitForPacket_sloc4_1_0 + 3)
   289A FF                 7910 	mov	r7,a
   289B C3                 7911 	clr	c
   289C E5 35              7912 	mov	a,_WaitForPacket_sloc1_1_0
   289E 9C                 7913 	subb	a,r4
   289F E5 36              7914 	mov	a,(_WaitForPacket_sloc1_1_0 + 1)
   28A1 9D                 7915 	subb	a,r5
   28A2 E5 37              7916 	mov	a,(_WaitForPacket_sloc1_1_0 + 2)
   28A4 9E                 7917 	subb	a,r6
   28A5 E5 38              7918 	mov	a,(_WaitForPacket_sloc1_1_0 + 3)
   28A7 9F                 7919 	subb	a,r7
   28A8 50 10              7920 	jnc	00106$
                    227B   7921 	C$ydrip.c$925$3$4 ==.
                           7922 ;	apps/ydrip/ydrip.c:925: killWithWatchdog();
   28AA C0 03              7923 	push	ar3
   28AC 12 23 FF           7924 	lcall	_killWithWatchdog
                    2280   7925 	C$ydrip.c$926$4$5 ==.
                           7926 ;	apps/ydrip/ydrip.c:926: LED_RED(1);											// Error Indicator
   28AF 43 FF 02           7927 	orl	_P2DIR,#0x02
                    2283   7928 	C$ydrip.c$927$3$4 ==.
                           7929 ;	apps/ydrip/ydrip.c:927: delayMs(2000);
   28B2 90 07 D0           7930 	mov	dptr,#0x07D0
   28B5 12 4C EF           7931 	lcall	_delayMs
   28B8 D0 03              7932 	pop	ar3
   28BA                    7933 00106$:
                    228B   7934 	C$ydrip.c$929$2$2 ==.
                           7935 ;	apps/ydrip/ydrip.c:929: if (packet = radioQueueRxCurrentPacket()) {
   28BA C0 03              7936 	push	ar3
   28BC 12 33 6A           7937 	lcall	_radioQueueRxCurrentPacket
   28BF AE 82              7938 	mov	r6,dpl
   28C1 AF 83              7939 	mov	r7,dph
   28C3 D0 03              7940 	pop	ar3
   28C5 8E 04              7941 	mov	ar4,r6
   28C7 8F 05              7942 	mov	ar5,r7
   28C9 EE                 7943 	mov	a,r6
   28CA 4F                 7944 	orl	a,r7
   28CB 70 03              7945 	jnz	00136$
   28CD 02 27 E2           7946 	ljmp	00117$
   28D0                    7947 00136$:
                    22A1   7948 	C$ydrip.c$930$3$6 ==.
                           7949 ;	apps/ydrip/ydrip.c:930: uint8 len = packet[0];
   28D0 8C 82              7950 	mov	dpl,r4
   28D2 8D 83              7951 	mov	dph,r5
   28D4 E0                 7952 	movx	a,@dptr
   28D5 FF                 7953 	mov	r7,a
                    22A7   7954 	C$ydrip.c$931$3$6 ==.
                           7955 ;	apps/ydrip/ydrip.c:931: fOffset[channel] += FREQEST;
   28D6 EB                 7956 	mov	a,r3
   28D7 24 02              7957 	add	a,#_fOffset
   28D9 F9                 7958 	mov	r1,a
   28DA E3                 7959 	movx	a,@r1
   28DB FE                 7960 	mov	r6,a
   28DC 90 DF 38           7961 	mov	dptr,#_FREQEST
   28DF E0                 7962 	movx	a,@dptr
   28E0 2E                 7963 	add	a,r6
   28E1 F3                 7964 	movx	@r1,a
                    22B3   7965 	C$ydrip.c$932$1$1 ==.
                           7966 ;	apps/ydrip/ydrip.c:932: memcpy(pkt, packet, min8(len+2, sizeof(Dexcom_packet)));
   28E2 C0 03              7967 	push	ar3
   28E4 78 53              7968 	mov	r0,#_WaitForPacket_PARM_2
   28E6 E2                 7969 	movx	a,@r0
   28E7 FA                 7970 	mov	r2,a
   28E8 08                 7971 	inc	r0
   28E9 E2                 7972 	movx	a,@r0
   28EA FB                 7973 	mov	r3,a
   28EB 7E 00              7974 	mov	r6,#0x00
   28ED 8C 43              7975 	mov	_WaitForPacket_sloc5_1_0,r4
   28EF 8D 44              7976 	mov	(_WaitForPacket_sloc5_1_0 + 1),r5
   28F1 75 45 00           7977 	mov	(_WaitForPacket_sloc5_1_0 + 2),#0x00
   28F4 74 02              7978 	mov	a,#0x02
   28F6 2F                 7979 	add	a,r7
   28F7 F5 82              7980 	mov	dpl,a
   28F9 78 40              7981 	mov	r0,#_min8_PARM_2
   28FB 74 15              7982 	mov	a,#0x15
   28FD F2                 7983 	movx	@r0,a
   28FE C0 06              7984 	push	ar6
   2900 C0 03              7985 	push	ar3
   2902 C0 02              7986 	push	ar2
   2904 12 07 84           7987 	lcall	_min8
   2907 AF 82              7988 	mov	r7,dpl
   2909 D0 02              7989 	pop	ar2
   290B D0 03              7990 	pop	ar3
   290D D0 06              7991 	pop	ar6
   290F 78 77              7992 	mov	r0,#_memcpy_PARM_3
   2911 EF                 7993 	mov	a,r7
   2912 F2                 7994 	movx	@r0,a
   2913 08                 7995 	inc	r0
   2914 E4                 7996 	clr	a
   2915 F2                 7997 	movx	@r0,a
   2916 78 74              7998 	mov	r0,#_memcpy_PARM_2
   2918 E5 43              7999 	mov	a,_WaitForPacket_sloc5_1_0
   291A F2                 8000 	movx	@r0,a
   291B 08                 8001 	inc	r0
   291C E5 44              8002 	mov	a,(_WaitForPacket_sloc5_1_0 + 1)
   291E F2                 8003 	movx	@r0,a
   291F 08                 8004 	inc	r0
   2920 E5 45              8005 	mov	a,(_WaitForPacket_sloc5_1_0 + 2)
   2922 F2                 8006 	movx	@r0,a
   2923 8A 82              8007 	mov	dpl,r2
   2925 8B 83              8008 	mov	dph,r3
   2927 8E F0              8009 	mov	b,r6
   2929 C0 03              8010 	push	ar3
   292B 12 34 B9           8011 	lcall	_memcpy
                    22FF   8012 	C$ydrip.c$933$3$6 ==.
                           8013 ;	apps/ydrip/ydrip.c:933: if(radioCrcPassed()) {
   292E 12 4F DB           8014 	lcall	_radioCrcPassed
   2931 D0 03              8015 	pop	ar3
   2933 D0 03              8016 	pop	ar3
   2935 40 03              8017 	jc	00137$
   2937 02 29 CE           8018 	ljmp	00112$
   293A                    8019 00137$:
                    230B   8020 	C$ydrip.c$934$1$1 ==.
                           8021 ;	apps/ydrip/ydrip.c:934: dexcom_src_to_ascii(pkt->src_addr, transID);			// Get a human-readable version of the Dexcom Transmitter ID
   293A C0 03              8022 	push	ar3
   293C 78 53              8023 	mov	r0,#_WaitForPacket_PARM_2
   293E E2                 8024 	movx	a,@r0
   293F FE                 8025 	mov	r6,a
   2940 08                 8026 	inc	r0
   2941 E2                 8027 	movx	a,@r0
   2942 FF                 8028 	mov	r7,a
   2943 8E 82              8029 	mov	dpl,r6
   2945 8F 83              8030 	mov	dph,r7
   2947 A3                 8031 	inc	dptr
   2948 A3                 8032 	inc	dptr
   2949 A3                 8033 	inc	dptr
   294A A3                 8034 	inc	dptr
   294B A3                 8035 	inc	dptr
   294C E0                 8036 	movx	a,@dptr
   294D FA                 8037 	mov	r2,a
   294E A3                 8038 	inc	dptr
   294F E0                 8039 	movx	a,@dptr
   2950 FB                 8040 	mov	r3,a
   2951 A3                 8041 	inc	dptr
   2952 E0                 8042 	movx	a,@dptr
   2953 FC                 8043 	mov	r4,a
   2954 A3                 8044 	inc	dptr
   2955 E0                 8045 	movx	a,@dptr
   2956 FD                 8046 	mov	r5,a
   2957 90 F0 FF           8047 	mov	dptr,#_dexcom_src_to_ascii_PARM_2
   295A 74 91              8048 	mov	a,#_WaitForPacket_transID_1_1
   295C F0                 8049 	movx	@dptr,a
   295D A3                 8050 	inc	dptr
   295E 74 F3              8051 	mov	a,#(_WaitForPacket_transID_1_1 >> 8)
   2960 F0                 8052 	movx	@dptr,a
   2961 8A 82              8053 	mov	dpl,r2
   2963 8B 83              8054 	mov	dph,r3
   2965 8C F0              8055 	mov	b,r4
   2967 ED                 8056 	mov	a,r5
   2968 C0 07              8057 	push	ar7
   296A C0 06              8058 	push	ar6
   296C C0 03              8059 	push	ar3
   296E 12 08 46           8060 	lcall	_dexcom_src_to_ascii
                    2342   8061 	C$ydrip.c$936$4$7 ==.
                           8062 ;	apps/ydrip/ydrip.c:936: if(strcmp(transID,transmitter_id) == 0 || only_listen_for_my_transmitter == 0) { // strcmp will be zero if they match
   2971 78 BB              8063 	mov	r0,#_strcmp_PARM_2
   2973 74 25              8064 	mov	a,#_transmitter_id
   2975 F2                 8065 	movx	@r0,a
   2976 08                 8066 	inc	r0
   2977 74 F8              8067 	mov	a,#(_transmitter_id >> 8)
   2979 F2                 8068 	movx	@r0,a
   297A 08                 8069 	inc	r0
   297B E4                 8070 	clr	a
   297C F2                 8071 	movx	@r0,a
   297D 90 F3 91           8072 	mov	dptr,#_WaitForPacket_transID_1_1
   2980 75 F0 00           8073 	mov	b,#0x00
   2983 12 4A B4           8074 	lcall	_strcmp
   2986 E5 82              8075 	mov	a,dpl
   2988 85 83 F0           8076 	mov	b,dph
   298B D0 03              8077 	pop	ar3
   298D D0 06              8078 	pop	ar6
   298F D0 07              8079 	pop	ar7
   2991 D0 03              8080 	pop	ar3
   2993 45 F0              8081 	orl	a,b
   2995 60 03              8082 	jz	00107$
   2997 20 00 2A           8083 	jb	_only_listen_for_my_transmitter,00108$
   299A                    8084 00107$:
                    236B   8085 	C$ydrip.c$937$5$8 ==.
                           8086 ;	apps/ydrip/ydrip.c:937: pkt->txId -= channel;			// Subtract the channel number from the txID to make it the same regardless of the channel
   299A 74 0B              8087 	mov	a,#0x0B
   299C 2E                 8088 	add	a,r6
   299D FE                 8089 	mov	r6,a
   299E E4                 8090 	clr	a
   299F 3F                 8091 	addc	a,r7
   29A0 FF                 8092 	mov	r7,a
   29A1 8E 82              8093 	mov	dpl,r6
   29A3 8F 83              8094 	mov	dph,r7
   29A5 E0                 8095 	movx	a,@dptr
   29A6 C3                 8096 	clr	c
   29A7 9B                 8097 	subb	a,r3
   29A8 8E 82              8098 	mov	dpl,r6
   29AA 8F 83              8099 	mov	dph,r7
   29AC F0                 8100 	movx	@dptr,a
                    237E   8101 	C$ydrip.c$938$5$8 ==.
                           8102 ;	apps/ydrip/ydrip.c:938: radioQueueRxDoneWithPacket();
   29AD C0 03              8103 	push	ar3
   29AF 12 33 85           8104 	lcall	_radioQueueRxDoneWithPacket
   29B2 D0 03              8105 	pop	ar3
                    2385   8106 	C$ydrip.c$939$6$9 ==.
                           8107 ;	apps/ydrip/ydrip.c:939: LED_YELLOW(0);
   29B4 AF FF              8108 	mov	r7,_P2DIR
   29B6 53 07 FB           8109 	anl	ar7,#0xFB
   29B9 8F FF              8110 	mov	_P2DIR,r7
                    238C   8111 	C$ydrip.c$940$5$8 ==.
                           8112 ;	apps/ydrip/ydrip.c:940: last_catch_channel = channel;	// last_catch_channel does not seem to be used anywhere so this may be obsolete code?
   29BB 78 3A              8113 	mov	r0,#_last_catch_channel
   29BD EB                 8114 	mov	a,r3
   29BE F2                 8115 	movx	@r0,a
                    2390   8116 	C$ydrip.c$941$5$8 ==.
                           8117 ;	apps/ydrip/ydrip.c:941: return 1;
   29BF 90 00 01           8118 	mov	dptr,#0x0001
   29C2 80 23              8119 	sjmp	00120$
   29C4                    8120 00108$:
                    2395   8121 	C$ydrip.c$943$5$10 ==.
                           8122 ;	apps/ydrip/ydrip.c:943: radioQueueRxDoneWithPacket();
   29C4 C0 03              8123 	push	ar3
   29C6 12 33 85           8124 	lcall	_radioQueueRxDoneWithPacket
   29C9 D0 03              8125 	pop	ar3
   29CB 02 27 E2           8126 	ljmp	00117$
   29CE                    8127 00112$:
                    239F   8128 	C$ydrip.c$946$4$11 ==.
                           8129 ;	apps/ydrip/ydrip.c:946: radioQueueRxDoneWithPacket();
   29CE 12 33 85           8130 	lcall	_radioQueueRxDoneWithPacket
                    23A2   8131 	C$ydrip.c$947$5$12 ==.
                           8132 ;	apps/ydrip/ydrip.c:947: LED_YELLOW(0);
   29D1 AF FF              8133 	mov	r7,_P2DIR
   29D3 53 07 FB           8134 	anl	ar7,#0xFB
   29D6 8F FF              8135 	mov	_P2DIR,r7
                    23A9   8136 	C$ydrip.c$948$4$11 ==.
                           8137 ;	apps/ydrip/ydrip.c:948: return 0;
   29D8 90 00 00           8138 	mov	dptr,#0x0000
   29DB 80 0A              8139 	sjmp	00120$
   29DD                    8140 00119$:
                    23AE   8141 	C$ydrip.c$952$2$13 ==.
                           8142 ;	apps/ydrip/ydrip.c:952: LED_YELLOW(0);
   29DD AF FF              8143 	mov	r7,_P2DIR
   29DF 53 07 FB           8144 	anl	ar7,#0xFB
   29E2 8F FF              8145 	mov	_P2DIR,r7
                    23B5   8146 	C$ydrip.c$953$1$1 ==.
                           8147 ;	apps/ydrip/ydrip.c:953: return nRet;
   29E4 90 00 00           8148 	mov	dptr,#0x0000
   29E7                    8149 00120$:
                    23B8   8150 	C$ydrip.c$954$1$1 ==.
                    23B8   8151 	XG$WaitForPacket$0$0 ==.
   29E7 22                 8152 	ret
                           8153 ;------------------------------------------------------------
                           8154 ;Allocation info for local variables in function 'delayFor'
                           8155 ;------------------------------------------------------------
                           8156 ;sloc0                     Allocated with name '_delayFor_sloc0_1_0'
                           8157 ;wait_chan                 Allocated with name '_delayFor_wait_chan_1_1'
                           8158 ;------------------------------------------------------------
                    23B9   8159 	G$delayFor$0$0 ==.
                    23B9   8160 	C$ydrip.c$956$1$1 ==.
                           8161 ;	apps/ydrip/ydrip.c:956: XDATA uint32 delayFor(XDATA int wait_chan) {
                           8162 ;	-----------------------------------------
                           8163 ;	 function delayFor
                           8164 ;	-----------------------------------------
   29E8                    8165 _delayFor:
   29E8 AF 83              8166 	mov	r7,dph
   29EA E5 82              8167 	mov	a,dpl
   29EC 90 F3 97           8168 	mov	dptr,#_delayFor_wait_chan_1_1
   29EF F0                 8169 	movx	@dptr,a
   29F0 A3                 8170 	inc	dptr
   29F1 EF                 8171 	mov	a,r7
   29F2 F0                 8172 	movx	@dptr,a
                    23C4   8173 	C$ydrip.c$957$1$1 ==.
                           8174 ;	apps/ydrip/ydrip.c:957: if(needsTimingCalibration) {
   29F3 30 05 29           8175 	jnb	_needsTimingCalibration,00102$
                    23C7   8176 	C$ydrip.c$958$2$2 ==.
                           8177 ;	apps/ydrip/ydrip.c:958: return delayedWaitTimes[wait_chan];
   29F6 90 F3 97           8178 	mov	dptr,#_delayFor_wait_chan_1_1
   29F9 E0                 8179 	movx	a,@dptr
   29FA FE                 8180 	mov	r6,a
   29FB A3                 8181 	inc	dptr
   29FC E0                 8182 	movx	a,@dptr
   29FD CE                 8183 	xch	a,r6
   29FE 25 E0              8184 	add	a,acc
   2A00 CE                 8185 	xch	a,r6
   2A01 33                 8186 	rlc	a
   2A02 CE                 8187 	xch	a,r6
   2A03 25 E0              8188 	add	a,acc
   2A05 CE                 8189 	xch	a,r6
   2A06 33                 8190 	rlc	a
   2A07 EE                 8191 	mov	a,r6
   2A08 24 1A              8192 	add	a,#_delayedWaitTimes
   2A0A F9                 8193 	mov	r1,a
   2A0B E3                 8194 	movx	a,@r1
   2A0C FC                 8195 	mov	r4,a
   2A0D 09                 8196 	inc	r1
   2A0E E3                 8197 	movx	a,@r1
   2A0F FD                 8198 	mov	r5,a
   2A10 09                 8199 	inc	r1
   2A11 E3                 8200 	movx	a,@r1
   2A12 FE                 8201 	mov	r6,a
   2A13 09                 8202 	inc	r1
   2A14 E3                 8203 	movx	a,@r1
   2A15 FF                 8204 	mov	r7,a
   2A16 8C 82              8205 	mov	dpl,r4
   2A18 8D 83              8206 	mov	dph,r5
   2A1A 8E F0              8207 	mov	b,r6
   2A1C 02 2A AA           8208 	ljmp	00107$
   2A1F                    8209 00102$:
                    23F0   8210 	C$ydrip.c$960$1$1 ==.
                           8211 ;	apps/ydrip/ydrip.c:960: if(!wait_chan && sequential_missed_packets) {
   2A1F 90 F3 97           8212 	mov	dptr,#_delayFor_wait_chan_1_1
   2A22 E0                 8213 	movx	a,@dptr
   2A23 FE                 8214 	mov	r6,a
   2A24 A3                 8215 	inc	dptr
   2A25 E0                 8216 	movx	a,@dptr
   2A26 FF                 8217 	mov	r7,a
   2A27 4E                 8218 	orl	a,r6
   2A28 70 60              8219 	jnz	00104$
   2A2A 78 3E              8220 	mov	r0,#_sequential_missed_packets
   2A2C E2                 8221 	movx	a,@r0
   2A2D 60 5B              8222 	jz	00104$
                    2400   8223 	C$ydrip.c$961$2$3 ==.
                           8224 ;	apps/ydrip/ydrip.c:961: return waitTimes[wait_chan] + (sequential_missed_packets * wake_earlier_for_next_miss * 2 * 1000);
   2A2F 8E 04              8225 	mov	ar4,r6
   2A31 EF                 8226 	mov	a,r7
   2A32 CC                 8227 	xch	a,r4
   2A33 25 E0              8228 	add	a,acc
   2A35 CC                 8229 	xch	a,r4
   2A36 33                 8230 	rlc	a
   2A37 CC                 8231 	xch	a,r4
   2A38 25 E0              8232 	add	a,acc
   2A3A CC                 8233 	xch	a,r4
   2A3B 33                 8234 	rlc	a
   2A3C EC                 8235 	mov	a,r4
   2A3D 24 0A              8236 	add	a,#_waitTimes
   2A3F F9                 8237 	mov	r1,a
   2A40 E3                 8238 	movx	a,@r1
   2A41 F5 47              8239 	mov	_delayFor_sloc0_1_0,a
   2A43 09                 8240 	inc	r1
   2A44 E3                 8241 	movx	a,@r1
   2A45 F5 48              8242 	mov	(_delayFor_sloc0_1_0 + 1),a
   2A47 09                 8243 	inc	r1
   2A48 E3                 8244 	movx	a,@r1
   2A49 F5 49              8245 	mov	(_delayFor_sloc0_1_0 + 2),a
   2A4B 09                 8246 	inc	r1
   2A4C E3                 8247 	movx	a,@r1
   2A4D F5 4A              8248 	mov	(_delayFor_sloc0_1_0 + 3),a
   2A4F 78 3E              8249 	mov	r0,#_sequential_missed_packets
   2A51 79 00              8250 	mov	r1,#_wake_earlier_for_next_miss
   2A53 E2                 8251 	movx	a,@r0
   2A54 F5 F0              8252 	mov	b,a
   2A56 E3                 8253 	movx	a,@r1
   2A57 A4                 8254 	mul	ab
   2A58 FC                 8255 	mov	r4,a
   2A59 AD F0              8256 	mov	r5,b
   2A5B 78 B9              8257 	mov	r0,#__mulint_PARM_2
   2A5D EC                 8258 	mov	a,r4
   2A5E F2                 8259 	movx	@r0,a
   2A5F 08                 8260 	inc	r0
   2A60 ED                 8261 	mov	a,r5
   2A61 F2                 8262 	movx	@r0,a
   2A62 90 07 D0           8263 	mov	dptr,#0x07D0
   2A65 12 4A 94           8264 	lcall	__mulint
   2A68 AC 82              8265 	mov	r4,dpl
   2A6A E5 83              8266 	mov	a,dph
   2A6C FD                 8267 	mov	r5,a
   2A6D 33                 8268 	rlc	a
   2A6E 95 E0              8269 	subb	a,acc
   2A70 FB                 8270 	mov	r3,a
   2A71 FA                 8271 	mov	r2,a
   2A72 EC                 8272 	mov	a,r4
   2A73 25 47              8273 	add	a,_delayFor_sloc0_1_0
   2A75 FC                 8274 	mov	r4,a
   2A76 ED                 8275 	mov	a,r5
   2A77 35 48              8276 	addc	a,(_delayFor_sloc0_1_0 + 1)
   2A79 FD                 8277 	mov	r5,a
   2A7A EB                 8278 	mov	a,r3
   2A7B 35 49              8279 	addc	a,(_delayFor_sloc0_1_0 + 2)
   2A7D FB                 8280 	mov	r3,a
   2A7E EA                 8281 	mov	a,r2
   2A7F 35 4A              8282 	addc	a,(_delayFor_sloc0_1_0 + 3)
   2A81 FA                 8283 	mov	r2,a
   2A82 8C 82              8284 	mov	dpl,r4
   2A84 8D 83              8285 	mov	dph,r5
   2A86 8B F0              8286 	mov	b,r3
   2A88 80 20              8287 	sjmp	00107$
   2A8A                    8288 00104$:
                    245B   8289 	C$ydrip.c$963$2$4 ==.
                           8290 ;	apps/ydrip/ydrip.c:963: return waitTimes[wait_chan];
   2A8A EF                 8291 	mov	a,r7
   2A8B CE                 8292 	xch	a,r6
   2A8C 25 E0              8293 	add	a,acc
   2A8E CE                 8294 	xch	a,r6
   2A8F 33                 8295 	rlc	a
   2A90 CE                 8296 	xch	a,r6
   2A91 25 E0              8297 	add	a,acc
   2A93 CE                 8298 	xch	a,r6
   2A94 33                 8299 	rlc	a
   2A95 EE                 8300 	mov	a,r6
   2A96 24 0A              8301 	add	a,#_waitTimes
   2A98 F9                 8302 	mov	r1,a
   2A99 E3                 8303 	movx	a,@r1
   2A9A FC                 8304 	mov	r4,a
   2A9B 09                 8305 	inc	r1
   2A9C E3                 8306 	movx	a,@r1
   2A9D FD                 8307 	mov	r5,a
   2A9E 09                 8308 	inc	r1
   2A9F E3                 8309 	movx	a,@r1
   2AA0 FE                 8310 	mov	r6,a
   2AA1 09                 8311 	inc	r1
   2AA2 E3                 8312 	movx	a,@r1
   2AA3 FF                 8313 	mov	r7,a
   2AA4 8C 82              8314 	mov	dpl,r4
   2AA6 8D 83              8315 	mov	dph,r5
   2AA8 8E F0              8316 	mov	b,r6
   2AAA                    8317 00107$:
                    247B   8318 	C$ydrip.c$965$1$1 ==.
                    247B   8319 	XG$delayFor$0$0 ==.
   2AAA 22                 8320 	ret
                           8321 ;------------------------------------------------------------
                           8322 ;Allocation info for local variables in function 'get_packet'
                           8323 ;------------------------------------------------------------
                    247C   8324 	G$get_packet$0$0 ==.
                    247C   8325 	C$ydrip.c$967$1$1 ==.
                           8326 ;	apps/ydrip/ydrip.c:967: BIT get_packet(Dexcom_packet* pPkt) {
                           8327 ;	-----------------------------------------
                           8328 ;	 function get_packet
                           8329 ;	-----------------------------------------
   2AAB                    8330 _get_packet:
   2AAB AF 83              8331 	mov	r7,dph
   2AAD E5 82              8332 	mov	a,dpl
   2AAF 78 55              8333 	mov	r0,#_get_packet_pPkt_1_1
   2AB1 F2                 8334 	movx	@r0,a
   2AB2 08                 8335 	inc	r0
   2AB3 EF                 8336 	mov	a,r7
   2AB4 F2                 8337 	movx	@r0,a
                    2486   8338 	C$ydrip.c$969$1$1 ==.
                           8339 ;	apps/ydrip/ydrip.c:969: for(nChannel = start_channel; nChannel < NUM_CHANNELS; nChannel++) {
   2AB5 90 F8 5F           8340 	mov	dptr,#_start_channel
   2AB8 E0                 8341 	movx	a,@dptr
   2AB9 FC                 8342 	mov	r4,a
   2ABA 33                 8343 	rlc	a
   2ABB 95 E0              8344 	subb	a,acc
   2ABD FD                 8345 	mov	r5,a
   2ABE                    8346 00104$:
   2ABE C3                 8347 	clr	c
   2ABF EC                 8348 	mov	a,r4
   2AC0 94 04              8349 	subb	a,#0x04
   2AC2 ED                 8350 	mov	a,r5
   2AC3 64 80              8351 	xrl	a,#0x80
   2AC5 94 80              8352 	subb	a,#0x80
   2AC7 50 4F              8353 	jnc	00107$
                    249A   8354 	C$ydrip.c$970$2$2 ==.
                           8355 ;	apps/ydrip/ydrip.c:970: switch(WaitForPacket(delayFor(nChannel), pPkt, nChannel)) {
   2AC9 8C 82              8356 	mov	dpl,r4
   2ACB 8D 83              8357 	mov	dph,r5
   2ACD C0 05              8358 	push	ar5
   2ACF C0 04              8359 	push	ar4
   2AD1 12 29 E8           8360 	lcall	_delayFor
   2AD4 AA 82              8361 	mov	r2,dpl
   2AD6 AB 83              8362 	mov	r3,dph
   2AD8 D0 04              8363 	pop	ar4
   2ADA 90 F3 8A           8364 	mov	dptr,#_WaitForPacket_PARM_3
   2ADD EC                 8365 	mov	a,r4
   2ADE F0                 8366 	movx	@dptr,a
   2ADF 78 55              8367 	mov	r0,#_get_packet_pPkt_1_1
   2AE1 79 53              8368 	mov	r1,#_WaitForPacket_PARM_2
   2AE3 E2                 8369 	movx	a,@r0
   2AE4 F3                 8370 	movx	@r1,a
   2AE5 08                 8371 	inc	r0
   2AE6 E2                 8372 	movx	a,@r0
   2AE7 09                 8373 	inc	r1
   2AE8 F3                 8374 	movx	@r1,a
   2AE9 8A 82              8375 	mov	dpl,r2
   2AEB 8B 83              8376 	mov	dph,r3
   2AED C0 04              8377 	push	ar4
   2AEF 12 27 40           8378 	lcall	_WaitForPacket
   2AF2 AE 82              8379 	mov	r6,dpl
   2AF4 AF 83              8380 	mov	r7,dph
   2AF6 D0 04              8381 	pop	ar4
   2AF8 D0 05              8382 	pop	ar5
   2AFA BE 00 05           8383 	cjne	r6,#0x00,00118$
   2AFD BF 00 02           8384 	cjne	r7,#0x00,00118$
   2B00 80 0F              8385 	sjmp	00106$
   2B02                    8386 00118$:
   2B02 BE 01 0C           8387 	cjne	r6,#0x01,00106$
   2B05 BF 00 09           8388 	cjne	r7,#0x00,00106$
                    24D9   8389 	C$ydrip.c$972$3$3 ==.
                           8390 ;	apps/ydrip/ydrip.c:972: needsTimingCalibration = 0;
   2B08 C2 05              8391 	clr	_needsTimingCalibration
                    24DB   8392 	C$ydrip.c$973$3$3 ==.
                           8393 ;	apps/ydrip/ydrip.c:973: sequential_missed_packets = 0;
   2B0A 78 3E              8394 	mov	r0,#_sequential_missed_packets
   2B0C E4                 8395 	clr	a
   2B0D F2                 8396 	movx	@r0,a
                    24DF   8397 	C$ydrip.c$974$3$3 ==.
                           8398 ;	apps/ydrip/ydrip.c:974: return 1;
   2B0E D3                 8399 	setb	c
                    24E0   8400 	C$ydrip.c$977$1$1 ==.
                           8401 ;	apps/ydrip/ydrip.c:977: }
   2B0F 80 28              8402 	sjmp	00110$
   2B11                    8403 00106$:
                    24E2   8404 	C$ydrip.c$969$1$1 ==.
                           8405 ;	apps/ydrip/ydrip.c:969: for(nChannel = start_channel; nChannel < NUM_CHANNELS; nChannel++) {
   2B11 0C                 8406 	inc	r4
   2B12 BC 00 A9           8407 	cjne	r4,#0x00,00104$
   2B15 0D                 8408 	inc	r5
   2B16 80 A6              8409 	sjmp	00104$
   2B18                    8410 00107$:
                    24E9   8411 	C$ydrip.c$979$1$1 ==.
                           8412 ;	apps/ydrip/ydrip.c:979: sequential_missed_packets ++;
   2B18 78 3E              8413 	mov	r0,#_sequential_missed_packets
   2B1A E2                 8414 	movx	a,@r0
   2B1B 24 01              8415 	add	a,#0x01
   2B1D F2                 8416 	movx	@r0,a
                    24EF   8417 	C$ydrip.c$980$1$1 ==.
                           8418 ;	apps/ydrip/ydrip.c:980: if(sequential_missed_packets > misses_until_failure) {
   2B1E 78 3E              8419 	mov	r0,#_sequential_missed_packets
   2B20 79 01              8420 	mov	r1,#_misses_until_failure
   2B22 C3                 8421 	clr	c
   2B23 E2                 8422 	movx	a,@r0
   2B24 F5 F0              8423 	mov	b,a
   2B26 E3                 8424 	movx	a,@r1
   2B27 95 F0              8425 	subb	a,b
   2B29 50 06              8426 	jnc	00109$
                    24FC   8427 	C$ydrip.c$981$2$4 ==.
                           8428 ;	apps/ydrip/ydrip.c:981: sequential_missed_packets = 0;
   2B2B 78 3E              8429 	mov	r0,#_sequential_missed_packets
   2B2D E4                 8430 	clr	a
   2B2E F2                 8431 	movx	@r0,a
                    2500   8432 	C$ydrip.c$982$2$4 ==.
                           8433 ;	apps/ydrip/ydrip.c:982: needsTimingCalibration = 1;
   2B2F D2 05              8434 	setb	_needsTimingCalibration
   2B31                    8435 00109$:
                    2502   8436 	C$ydrip.c$984$1$1 ==.
                           8437 ;	apps/ydrip/ydrip.c:984: reset_offsets();
   2B31 12 23 D7           8438 	lcall	_reset_offsets
                    2505   8439 	C$ydrip.c$985$1$1 ==.
                           8440 ;	apps/ydrip/ydrip.c:985: last_catch_channel = 0;
   2B34 78 3A              8441 	mov	r0,#_last_catch_channel
   2B36 E4                 8442 	clr	a
   2B37 F2                 8443 	movx	@r0,a
                    2509   8444 	C$ydrip.c$986$1$1 ==.
                           8445 ;	apps/ydrip/ydrip.c:986: return 0;
   2B38 C3                 8446 	clr	c
   2B39                    8447 00110$:
                    250A   8448 	C$ydrip.c$987$1$1 ==.
                    250A   8449 	XG$get_packet$0$0 ==.
   2B39 22                 8450 	ret
                           8451 ;------------------------------------------------------------
                           8452 ;Allocation info for local variables in function 'setADCInputs'
                           8453 ;------------------------------------------------------------
                    250B   8454 	G$setADCInputs$0$0 ==.
                    250B   8455 	C$ydrip.c$989$1$1 ==.
                           8456 ;	apps/ydrip/ydrip.c:989: void setADCInputs() {
                           8457 ;	-----------------------------------------
                           8458 ;	 function setADCInputs
                           8459 ;	-----------------------------------------
   2B3A                    8460 _setADCInputs:
                    250B   8461 	C$ydrip.c$990$1$1 ==.
                           8462 ;	apps/ydrip/ydrip.c:990: P0INP=0; //set pull resistors on pins 0_0 - 0_5 to low
   2B3A 75 8F 00           8463 	mov	_P0INP,#0x00
                    250E   8464 	C$ydrip.c$991$1$1 ==.
                    250E   8465 	XG$setADCInputs$0$0 ==.
   2B3D 22                 8466 	ret
                           8467 ;------------------------------------------------------------
                           8468 ;Allocation info for local variables in function 'main'
                           8469 ;------------------------------------------------------------
                           8470 ;Pkt                       Allocated with name '_main_Pkt_2_2'
                           8471 ;------------------------------------------------------------
                    250F   8472 	G$main$0$0 ==.
                    250F   8473 	C$ydrip.c$994$1$1 ==.
                           8474 ;	apps/ydrip/ydrip.c:994: void main() {
                           8475 ;	-----------------------------------------
                           8476 ;	 function main
                           8477 ;	-----------------------------------------
   2B3E                    8478 _main:
                    250F   8479 	C$ydrip.c$995$1$1 ==.
                           8480 ;	apps/ydrip/ydrip.c:995: systemInit();
   2B3E 12 40 B5           8481 	lcall	_systemInit
                    2512   8482 	C$ydrip.c$996$1$1 ==.
                           8483 ;	apps/ydrip/ydrip.c:996: initUart1();
   2B41 12 09 C1           8484 	lcall	_initUart1
                    2515   8485 	C$ydrip.c$998$1$1 ==.
                           8486 ;	apps/ydrip/ydrip.c:998: P1DIR |= 0x08; // RTS
   2B44 43 FE 08           8487 	orl	_P1DIR,#0x08
                    2518   8488 	C$ydrip.c$999$1$1 ==.
                           8489 ;	apps/ydrip/ydrip.c:999: sleepInit();
   2B47 12 06 2F           8490 	lcall	_sleepInit
                    251B   8491 	C$ydrip.c$1000$1$1 ==.
                           8492 ;	apps/ydrip/ydrip.c:1000: makeAllOutputs();
   2B4A 12 23 85           8493 	lcall	_makeAllOutputs
                    251E   8494 	C$ydrip.c$1001$1$1 ==.
                           8495 ;	apps/ydrip/ydrip.c:1001: setADCInputs();
   2B4D 12 2B 3A           8496 	lcall	_setADCInputs
                    2521   8497 	C$ydrip.c$1002$1$1 ==.
                           8498 ;	apps/ydrip/ydrip.c:1002: delayMs(1000);
   2B50 90 03 E8           8499 	mov	dptr,#0x03E8
   2B53 12 4C EF           8500 	lcall	_delayMs
                    2527   8501 	C$ydrip.c$1011$1$1 ==.
                           8502 ;	apps/ydrip/ydrip.c:1011: radioQueueInit();
   2B56 12 32 E9           8503 	lcall	_radioQueueInit
                    252A   8504 	C$ydrip.c$1012$1$1 ==.
                           8505 ;	apps/ydrip/ydrip.c:1012: radioQueueAllowCrcErrors = 1;
   2B59 D2 12              8506 	setb	_radioQueueAllowCrcErrors
                    252C   8507 	C$ydrip.c$1013$1$1 ==.
                           8508 ;	apps/ydrip/ydrip.c:1013: MCSM1 = 0;
   2B5B 90 DF 13           8509 	mov	dptr,#_MCSM1
   2B5E E4                 8510 	clr	a
   2B5F F0                 8511 	movx	@dptr,a
                    2531   8512 	C$ydrip.c$1014$1$1 ==.
                           8513 ;	apps/ydrip/ydrip.c:1014: enableESP();					// Send ESP-12 asleep here so we don't get any noise while listening for Dexcom packets	
   2B60 12 0C E6           8514 	lcall	_enableESP
                    2534   8515 	C$ydrip.c$1015$1$1 ==.
                           8516 ;	apps/ydrip/ydrip.c:1015: uartEnable();
   2B63 12 06 5C           8517 	lcall	_uartEnable
                    2537   8518 	C$ydrip.c$1016$1$1 ==.
                           8519 ;	apps/ydrip/ydrip.c:1016: ESPsleep();						// Disconnect and send the ESP-12 aseep
   2B66 12 1F 7A           8520 	lcall	_ESPsleep
                    253A   8521 	C$ydrip.c$1017$1$1 ==.
                           8522 ;	apps/ydrip/ydrip.c:1017: while(1) {
   2B69                    8523 00112$:
                    253A   8524 	C$ydrip.c$1019$2$2 ==.
                           8525 ;	apps/ydrip/ydrip.c:1019: memset(&Pkt, 0, sizeof(Dexcom_packet));
   2B69 78 7C              8526 	mov	r0,#_memset_PARM_2
   2B6B E4                 8527 	clr	a
   2B6C F2                 8528 	movx	@r0,a
   2B6D 78 7D              8529 	mov	r0,#_memset_PARM_3
   2B6F 74 15              8530 	mov	a,#0x15
   2B71 F2                 8531 	movx	@r0,a
   2B72 08                 8532 	inc	r0
   2B73 E4                 8533 	clr	a
   2B74 F2                 8534 	movx	@r0,a
   2B75 90 F3 99           8535 	mov	dptr,#_main_Pkt_2_2
   2B78 75 F0 00           8536 	mov	b,#0x00
   2B7B 12 35 2C           8537 	lcall	_memset
                    254F   8538 	C$ydrip.c$1020$2$2 ==.
                           8539 ;	apps/ydrip/ydrip.c:1020: boardService();
   2B7E 12 40 C2           8540 	lcall	_boardService
                    2552   8541 	C$ydrip.c$1022$2$2 ==.
                           8542 ;	apps/ydrip/ydrip.c:1022: if (debug_mode) {
   2B81 30 03 14           8543 	jnb	_debug_mode,00104$
                    2555   8544 	C$ydrip.c$1023$3$3 ==.
                           8545 ;	apps/ydrip/ydrip.c:1023: enableESP();
   2B84 12 0C E6           8546 	lcall	_enableESP
                    2558   8547 	C$ydrip.c$1024$3$3 ==.
                           8548 ;	apps/ydrip/ydrip.c:1024: print_packet(&Pkt);	
   2B87 90 F3 99           8549 	mov	dptr,#_main_Pkt_2_2
   2B8A 12 1F CB           8550 	lcall	_print_packet
                    255E   8551 	C$ydrip.c$1025$3$3 ==.
                           8552 ;	apps/ydrip/ydrip.c:1025: ESPsleep();											// Disconnect and send the ESP asleep
   2B8D 12 1F 7A           8553 	lcall	_ESPsleep
                    2561   8554 	C$ydrip.c$1026$3$3 ==.
                           8555 ;	apps/ydrip/ydrip.c:1026: delayMs(5000);
   2B90 90 13 88           8556 	mov	dptr,#0x1388
   2B93 12 4C EF           8557 	lcall	_delayMs
   2B96 80 20              8558 	sjmp	00105$
   2B98                    8559 00104$:
                    2569   8560 	C$ydrip.c$1028$3$4 ==.
                           8561 ;	apps/ydrip/ydrip.c:1028: if(get_packet(&Pkt)) {
   2B98 90 F3 99           8562 	mov	dptr,#_main_Pkt_2_2
   2B9B 12 2A AB           8563 	lcall	_get_packet
   2B9E 50 18              8564 	jnc	00105$
                    2571   8565 	C$ydrip.c$1029$4$5 ==.
                           8566 ;	apps/ydrip/ydrip.c:1029: RFST = 4;
   2BA0 75 E1 04           8567 	mov	_RFST,#0x04
                    2574   8568 	C$ydrip.c$1030$4$5 ==.
                           8569 ;	apps/ydrip/ydrip.c:1030: delayMs(100);
   2BA3 90 00 64           8570 	mov	dptr,#0x0064
   2BA6 12 4C EF           8571 	lcall	_delayMs
                    257A   8572 	C$ydrip.c$1031$4$5 ==.
                           8573 ;	apps/ydrip/ydrip.c:1031: radioMacSleep();									// Switch off radio before switching on ESP to save a bit of battery
   2BA9 12 30 ED           8574 	lcall	_radioMacSleep
                    257D   8575 	C$ydrip.c$1032$4$5 ==.
                           8576 ;	apps/ydrip/ydrip.c:1032: enableESP();
   2BAC 12 0C E6           8577 	lcall	_enableESP
                    2580   8578 	C$ydrip.c$1033$4$5 ==.
                           8579 ;	apps/ydrip/ydrip.c:1033: print_packet(&Pkt);
   2BAF 90 F3 99           8580 	mov	dptr,#_main_Pkt_2_2
   2BB2 12 1F CB           8581 	lcall	_print_packet
                    2586   8582 	C$ydrip.c$1034$4$5 ==.
                           8583 ;	apps/ydrip/ydrip.c:1034: ESPsleep();											// Disconnect and send the ESP asleep
   2BB5 12 1F 7A           8584 	lcall	_ESPsleep
   2BB8                    8585 00105$:
                    2589   8586 	C$ydrip.c$1037$2$2 ==.
                           8587 ;	apps/ydrip/ydrip.c:1037: if(usbPowerPresent()){
   2BB8 12 41 79           8588 	lcall	_usbPowerPresent
   2BBB 50 06              8589 	jnc	00107$
                    258E   8590 	C$ydrip.c$1038$3$6 ==.
                           8591 ;	apps/ydrip/ydrip.c:1038: sequential_missed_packets++;	// Why only increment this if usb connected?  It is incremented in get_packet also so a bit confusing
   2BBD 78 3E              8592 	mov	r0,#_sequential_missed_packets
   2BBF E2                 8593 	movx	a,@r0
   2BC0 24 01              8594 	add	a,#0x01
   2BC2 F2                 8595 	movx	@r0,a
   2BC3                    8596 00107$:
                    2594   8597 	C$ydrip.c$1040$2$2 ==.
                           8598 ;	apps/ydrip/ydrip.c:1040: if(sequential_missed_packets > 0) {
   2BC3 78 3E              8599 	mov	r0,#_sequential_missed_packets
   2BC5 E2                 8600 	movx	a,@r0
   2BC6 60 73              8601 	jz	00109$
                    2599   8602 	C$ydrip.c$1041$3$7 ==.
                           8603 ;	apps/ydrip/ydrip.c:1041: int first_square = sequential_missed_packets * sequential_missed_packets * wake_earlier_for_next_miss;
   2BC8 78 3E              8604 	mov	r0,#_sequential_missed_packets
   2BCA E2                 8605 	movx	a,@r0
   2BCB F5 F0              8606 	mov	b,a
   2BCD E2                 8607 	movx	a,@r0
   2BCE A4                 8608 	mul	ab
   2BCF F5 82              8609 	mov	dpl,a
   2BD1 85 F0 83           8610 	mov	dph,b
   2BD4 78 00              8611 	mov	r0,#_wake_earlier_for_next_miss
   2BD6 79 B9              8612 	mov	r1,#__mulint_PARM_2
   2BD8 E2                 8613 	movx	a,@r0
   2BD9 F3                 8614 	movx	@r1,a
   2BDA 09                 8615 	inc	r1
   2BDB E4                 8616 	clr	a
   2BDC F3                 8617 	movx	@r1,a
   2BDD 12 4A 94           8618 	lcall	__mulint
   2BE0 AE 82              8619 	mov	r6,dpl
   2BE2 AF 83              8620 	mov	r7,dph
                    25B5   8621 	C$ydrip.c$1042$3$7 ==.
                           8622 ;	apps/ydrip/ydrip.c:1042: int second_square = (sequential_missed_packets - 1) * (sequential_missed_packets - 1) * wake_earlier_for_next_miss;
   2BE4 78 3E              8623 	mov	r0,#_sequential_missed_packets
   2BE6 E2                 8624 	movx	a,@r0
   2BE7 7D 00              8625 	mov	r5,#0x00
   2BE9 24 FF              8626 	add	a,#0xFF
   2BEB F5 82              8627 	mov	dpl,a
   2BED ED                 8628 	mov	a,r5
   2BEE 34 FF              8629 	addc	a,#0xFF
   2BF0 F5 83              8630 	mov	dph,a
   2BF2 78 3E              8631 	mov	r0,#_sequential_missed_packets
   2BF4 E2                 8632 	movx	a,@r0
   2BF5 FC                 8633 	mov	r4,a
   2BF6 7D 00              8634 	mov	r5,#0x00
   2BF8 78 B9              8635 	mov	r0,#__mulint_PARM_2
   2BFA EC                 8636 	mov	a,r4
   2BFB 24 FF              8637 	add	a,#0xFF
   2BFD F2                 8638 	movx	@r0,a
   2BFE ED                 8639 	mov	a,r5
   2BFF 34 FF              8640 	addc	a,#0xFF
   2C01 08                 8641 	inc	r0
   2C02 F2                 8642 	movx	@r0,a
   2C03 C0 07              8643 	push	ar7
   2C05 C0 06              8644 	push	ar6
   2C07 12 4A 94           8645 	lcall	__mulint
   2C0A AC 82              8646 	mov	r4,dpl
   2C0C AD 83              8647 	mov	r5,dph
   2C0E 78 00              8648 	mov	r0,#_wake_earlier_for_next_miss
   2C10 79 B9              8649 	mov	r1,#__mulint_PARM_2
   2C12 E2                 8650 	movx	a,@r0
   2C13 F3                 8651 	movx	@r1,a
   2C14 09                 8652 	inc	r1
   2C15 E4                 8653 	clr	a
   2C16 F3                 8654 	movx	@r1,a
   2C17 8C 82              8655 	mov	dpl,r4
   2C19 8D 83              8656 	mov	dph,r5
   2C1B 12 4A 94           8657 	lcall	__mulint
   2C1E AC 82              8658 	mov	r4,dpl
   2C20 AD 83              8659 	mov	r5,dph
   2C22 D0 06              8660 	pop	ar6
   2C24 D0 07              8661 	pop	ar7
                    25F7   8662 	C$ydrip.c$1043$3$7 ==.
                           8663 ;	apps/ydrip/ydrip.c:1043: int sleep_time = (220 - first_square + second_square);  // temp from 230
   2C26 74 DC              8664 	mov	a,#0xDC
   2C28 C3                 8665 	clr	c
   2C29 9E                 8666 	subb	a,r6
   2C2A FE                 8667 	mov	r6,a
   2C2B E4                 8668 	clr	a
   2C2C 9F                 8669 	subb	a,r7
   2C2D FF                 8670 	mov	r7,a
   2C2E EC                 8671 	mov	a,r4
   2C2F 2E                 8672 	add	a,r6
   2C30 F5 82              8673 	mov	dpl,a
   2C32 ED                 8674 	mov	a,r5
   2C33 3F                 8675 	addc	a,r7
   2C34 F5 83              8676 	mov	dph,a
                    2607   8677 	C$ydrip.c$1044$3$7 ==.
                           8678 ;	apps/ydrip/ydrip.c:1044: goToSleep(sleep_time);
   2C36 12 24 11           8679 	lcall	_goToSleep
   2C39 80 06              8680 	sjmp	00110$
   2C3B                    8681 00109$:
                    260C   8682 	C$ydrip.c$1046$3$8 ==.
                           8683 ;	apps/ydrip/ydrip.c:1046: goToSleep(235);		// Wixel sleep for 245 seconds - temp from 245
   2C3B 90 00 EB           8684 	mov	dptr,#0x00EB
   2C3E 12 24 11           8685 	lcall	_goToSleep
   2C41                    8686 00110$:
                    2612   8687 	C$ydrip.c$1051$2$2 ==.
                           8688 ;	apps/ydrip/ydrip.c:1051: killWithWatchdog();									// Set interrupts to reset
   2C41 12 23 FF           8689 	lcall	_killWithWatchdog
                    2615   8690 	C$ydrip.c$1052$3$9 ==.
                           8691 ;	apps/ydrip/ydrip.c:1052: LED_RED(1);											// Error Indicator
   2C44 43 FF 02           8692 	orl	_P2DIR,#0x02
                    2618   8693 	C$ydrip.c$1053$2$2 ==.
                           8694 ;	apps/ydrip/ydrip.c:1053: delayMs(2000);										// Wait for interrupt to kick in and reset to occur
   2C47 90 07 D0           8695 	mov	dptr,#0x07D0
   2C4A 12 4C EF           8696 	lcall	_delayMs
                    261E   8697 	C$ydrip.c$1057$2$2 ==.
                           8698 ;	apps/ydrip/ydrip.c:1057: radioMacResume();
   2C4D 12 30 F6           8699 	lcall	_radioMacResume
                    2621   8700 	C$ydrip.c$1058$2$2 ==.
                           8701 ;	apps/ydrip/ydrip.c:1058: MCSM1 = 0;
   2C50 90 DF 13           8702 	mov	dptr,#_MCSM1
   2C53 E4                 8703 	clr	a
   2C54 F0                 8704 	movx	@dptr,a
                    2626   8705 	C$ydrip.c$1059$2$2 ==.
                           8706 ;	apps/ydrip/ydrip.c:1059: radioMacStrobe();
   2C55 12 30 E7           8707 	lcall	_radioMacStrobe
   2C58 02 2B 69           8708 	ljmp	00112$
                    262C   8709 	C$ydrip.c$1061$1$1 ==.
                    262C   8710 	XG$main$0$0 ==.
   2C5B 22                 8711 	ret
                           8712 	.area CSEG    (CODE)
                           8713 	.area CONST   (CODE)
                    0000   8714 Fydrip$_str_1$0$0 == .
   5CA7                    8715 __str_1:
   5CA7 64 6F 66 69 6C 65  8716 	.ascii "dofile("
        28
   5CAE 22                 8717 	.db 0x22
   5CAF 69 6E 69 74 2E 6C  8718 	.ascii "init.lua"
        75 61
   5CB7 22                 8719 	.db 0x22
   5CB8 29                 8720 	.ascii ")"
   5CB9 0D                 8721 	.db 0x0D
   5CBA 0A                 8722 	.db 0x0A
   5CBB 00                 8723 	.db 0x00
                    0015   8724 Fydrip$_str_2$0$0 == .
   5CBC                    8725 __str_2:
   5CBC 2D 2D 20 4E 6F 20  8726 	.ascii "-- No need to write out .lua files as they seem to already e"
        6E 65 65 64 20 74
        6F 20 77 72 69 74
        65 20 6F 75 74 20
        2E 6C 75 61 20 66
        69 6C 65 73 20 61
        73 20 74 68 65 79
        20 73 65 65 6D 20
        74 6F 20 61 6C 72
        65 61 64 79 20 65
   5CF8 78 69 73 74 20 2D  8727 	.ascii "xist --"
        2D
   5CFF 0D                 8728 	.db 0x0D
   5D00 0A                 8729 	.db 0x0A
   5D01 00                 8730 	.db 0x00
                    005B   8731 Fydrip$_str_3$0$0 == .
   5D02                    8732 __str_3:
   5D02 2D 2D 20 57 72 69  8733 	.ascii "-- Writing out .lua files as they cannot be found --"
        74 69 6E 67 20 6F
        75 74 20 2E 6C 75
        61 20 66 69 6C 65
        73 20 61 73 20 74
        68 65 79 20 63 61
        6E 6E 6F 74 20 62
        65 20 66 6F 75 6E
        64 20 2D 2D
   5D36 0D                 8734 	.db 0x0D
   5D37 0A                 8735 	.db 0x0A
   5D38 00                 8736 	.db 0x00
                    0092   8737 Fydrip$_str_4$0$0 == .
   5D39                    8738 __str_4:
   5D39 2D 2D 20 4C 65 6E  8739 	.ascii "-- Length is %d"
        67 74 68 20 69 73
        20 25 64
   5D48 0D                 8740 	.db 0x0D
   5D49 0A                 8741 	.db 0x0A
   5D4A 00                 8742 	.db 0x00
                    00A4   8743 Fydrip$_str_5$0$0 == .
   5D4B                    8744 __str_5:
   5D4B 66 69 6C 65 2E 6F  8745 	.ascii "file.open("
        70 65 6E 28
   5D55 22                 8746 	.db 0x22
   5D56 69 6E 69 74 2E 6C  8747 	.ascii "init.lua"
        75 61
   5D5E 22                 8748 	.db 0x22
   5D5F 2C 20              8749 	.ascii ", "
   5D61 22                 8750 	.db 0x22
   5D62 77                 8751 	.ascii "w"
   5D63 22                 8752 	.db 0x22
   5D64 29                 8753 	.ascii ")"
   5D65 0D                 8754 	.db 0x0D
   5D66 0A                 8755 	.db 0x0A
   5D67 00                 8756 	.db 0x00
                    00C1   8757 Fydrip$_str_6$0$0 == .
   5D68                    8758 __str_6:
   5D68 66 69 6C 65 2E 77  8759 	.ascii "file.writeline([[gpio.mode(3, gpio.OUTPUT)]])"
        72 69 74 65 6C 69
        6E 65 28 5B 5B 67
        70 69 6F 2E 6D 6F
        64 65 28 33 2C 20
        67 70 69 6F 2E 4F
        55 54 50 55 54 29
        5D 5D 29
   5D95 0D                 8760 	.db 0x0D
   5D96 0A                 8761 	.db 0x0A
   5D97 00                 8762 	.db 0x00
                    00F1   8763 Fydrip$_str_7$0$0 == .
   5D98                    8764 __str_7:
   5D98 66 69 6C 65 2E 77  8765 	.ascii "file.writeline([[gpio.write(3, gpio.LOW)]])"
        72 69 74 65 6C 69
        6E 65 28 5B 5B 67
        70 69 6F 2E 77 72
        69 74 65 28 33 2C
        20 67 70 69 6F 2E
        4C 4F 57 29 5D 5D
        29
   5DC3 0D                 8766 	.db 0x0D
   5DC4 0A                 8767 	.db 0x0A
   5DC5 00                 8768 	.db 0x00
                    011F   8769 Fydrip$_str_8$0$0 == .
   5DC6                    8770 __str_8:
   5DC6 66 69 6C 65 2E 77  8771 	.ascii "file.writeline([[gpio.mode(5, gpio.OUTPUT)]])"
        72 69 74 65 6C 69
        6E 65 28 5B 5B 67
        70 69 6F 2E 6D 6F
        64 65 28 35 2C 20
        67 70 69 6F 2E 4F
        55 54 50 55 54 29
        5D 5D 29
   5DF3 0D                 8772 	.db 0x0D
   5DF4 0A                 8773 	.db 0x0A
   5DF5 00                 8774 	.db 0x00
                    014F   8775 Fydrip$_str_9$0$0 == .
   5DF6                    8776 __str_9:
   5DF6 66 69 6C 65 2E 77  8777 	.ascii "file.writeline([[gpio.write(5, gpio.LOW)]])"
        72 69 74 65 6C 69
        6E 65 28 5B 5B 67
        70 69 6F 2E 77 72
        69 74 65 28 35 2C
        20 67 70 69 6F 2E
        4C 4F 57 29 5D 5D
        29
   5E21 0D                 8778 	.db 0x0D
   5E22 0A                 8779 	.db 0x0A
   5E23 00                 8780 	.db 0x00
                    017D   8781 Fydrip$_str_10$0$0 == .
   5E24                    8782 __str_10:
   5E24 66 69 6C 65 2E 77  8783 	.ascii "file.writeline([[gpio.mode(4, gpio.OUTPUT)]])"
        72 69 74 65 6C 69
        6E 65 28 5B 5B 67
        70 69 6F 2E 6D 6F
        64 65 28 34 2C 20
        67 70 69 6F 2E 4F
        55 54 50 55 54 29
        5D 5D 29
   5E51 0D                 8784 	.db 0x0D
   5E52 0A                 8785 	.db 0x0A
   5E53 00                 8786 	.db 0x00
                    01AD   8787 Fydrip$_str_11$0$0 == .
   5E54                    8788 __str_11:
   5E54 66 69 6C 65 2E 63  8789 	.ascii "file.close()"
        6C 6F 73 65 28 29
   5E60 0D                 8790 	.db 0x0D
   5E61 0A                 8791 	.db 0x0A
   5E62 00                 8792 	.db 0x00
                    01BC   8793 Fydrip$_str_12$0$0 == .
   5E63                    8794 __str_12:
   5E63 66 69 6C 65 2E 72  8795 	.ascii "file.remove('googletime.lua')"
        65 6D 6F 76 65 28
        27 67 6F 6F 67 6C
        65 74 69 6D 65 2E
        6C 75 61 27 29
   5E80 0D                 8796 	.db 0x0D
   5E81 0A                 8797 	.db 0x0A
   5E82 00                 8798 	.db 0x00
                    01DC   8799 Fydrip$_str_13$0$0 == .
   5E83                    8800 __str_13:
   5E83 66 69 6C 65 2E 6F  8801 	.ascii "file.open("
        70 65 6E 28
   5E8D 22                 8802 	.db 0x22
   5E8E 67 6F 6F 67 6C 65  8803 	.ascii "googletime.lua"
        74 69 6D 65 2E 6C
        75 61
   5E9C 22                 8804 	.db 0x22
   5E9D 2C 20              8805 	.ascii ", "
   5E9F 22                 8806 	.db 0x22
   5EA0 77                 8807 	.ascii "w"
   5EA1 22                 8808 	.db 0x22
   5EA2 29                 8809 	.ascii ")"
   5EA3 0D                 8810 	.db 0x0D
   5EA4 0A                 8811 	.db 0x0A
   5EA5 00                 8812 	.db 0x00
                    01FF   8813 Fydrip$_str_14$0$0 == .
   5EA6                    8814 __str_14:
   5EA6 66 69 6C 65 2E 77  8815 	.ascii "file.writeline([[connG=net.createConnection(net.TCP, 0)]])"
        72 69 74 65 6C 69
        6E 65 28 5B 5B 63
        6F 6E 6E 47 3D 6E
        65 74 2E 63 72 65
        61 74 65 43 6F 6E
        6E 65 63 74 69 6F
        6E 28 6E 65 74 2E
        54 43 50 2C 20 30
        29 5D 5D 29
   5EE0 0D                 8816 	.db 0x0D
   5EE1 0A                 8817 	.db 0x0A
   5EE2 00                 8818 	.db 0x00
                    023C   8819 Fydrip$_str_15$0$0 == .
   5EE3                    8820 __str_15:
   5EE3 66 69 6C 65 2E 77  8821 	.ascii "file.writeline([[connG:on("
        72 69 74 65 6C 69
        6E 65 28 5B 5B 63
        6F 6E 6E 47 3A 6F
        6E 28
   5EFD 22                 8822 	.db 0x22
   5EFE 63 6F 6E 6E 65 63  8823 	.ascii "connection"
        74 69 6F 6E
   5F08 22                 8824 	.db 0x22
   5F09 2C 66 75 6E 63 74  8825 	.ascii ",function(conn, payloa"
        69 6F 6E 28 63 6F
        6E 6E 2C 20 70 61
        79 6C 6F 61
   5F1F 64 29 5D 5D 29     8826 	.ascii "d)]])"
   5F24 0D                 8827 	.db 0x0D
   5F25 0A                 8828 	.db 0x0A
   5F26 00                 8829 	.db 0x00
                    0280   8830 Fydrip$_str_16$0$0 == .
   5F27                    8831 __str_16:
   5F27 66 69 6C 65 2E 77  8832 	.ascii "file.writeline([[connG:send("
        72 69 74 65 6C 69
        6E 65 28 5B 5B 63
        6F 6E 6E 47 3A 73
        65 6E 64 28
   5F43 22                 8833 	.db 0x22
   5F44 48 45 41 44 20 2F  8834 	.ascii "HEAD / HTTP/1.1"
        20 48 54 54 50 2F
        31 2E 31
   5F53 5C                 8835 	.db 0x5C
   5F54 72                 8836 	.ascii "r"
   5F55 5C                 8837 	.db 0x5C
   5F56 6E 48 6F 73 74 3A  8838 	.ascii "nHost: google"
        20 67 6F 6F 67 6C
        65
   5F63 2E 63 6F 6D        8839 	.ascii ".com"
   5F67 5C                 8840 	.db 0x5C
   5F68 72                 8841 	.ascii "r"
   5F69 5C                 8842 	.db 0x5C
   5F6A 6E 41 63 63 65 70  8843 	.ascii "nAccept: */*"
        74 3A 20 2A 2F 2A
   5F76 5C                 8844 	.db 0x5C
   5F77 72                 8845 	.ascii "r"
   5F78 5C                 8846 	.db 0x5C
   5F79 6E                 8847 	.ascii "n"
   5F7A 22                 8848 	.db 0x22
   5F7B 2E 2E 5D 5D 29     8849 	.ascii "..]])"
   5F80 0D                 8850 	.db 0x0D
   5F81 0A                 8851 	.db 0x0A
   5F82 00                 8852 	.db 0x00
                    02DC   8853 Fydrip$_str_17$0$0 == .
   5F83                    8854 __str_17:
   5F83 66 69 6C 65 2E 77  8855 	.ascii "file.writeline([["
        72 69 74 65 6C 69
        6E 65 28 5B 5B
   5F94 22                 8856 	.db 0x22
   5F95 55 73 65 72 2D 41  8857 	.ascii "User-Agent: Mozilla/4.0 (compatible; esp82"
        67 65 6E 74 3A 20
        4D 6F 7A 69 6C 6C
        61 2F 34 2E 30 20
        28 63 6F 6D 70 61
        74 69 62 6C 65 3B
        20 65 73 70 38 32
   5FBF 36 36 20 4C 75 61  8858 	.ascii "66 Lua;)"
        3B 29
   5FC7 5C                 8859 	.db 0x5C
   5FC8 72                 8860 	.ascii "r"
   5FC9 5C                 8861 	.db 0x5C
   5FCA 6E                 8862 	.ascii "n"
   5FCB 5C                 8863 	.db 0x5C
   5FCC 72                 8864 	.ascii "r"
   5FCD 5C                 8865 	.db 0x5C
   5FCE 6E                 8866 	.ascii "n"
   5FCF 22                 8867 	.db 0x22
   5FD0 29 20 65 6E 64 29  8868 	.ascii ") end)]])"
        5D 5D 29
   5FD9 0D                 8869 	.db 0x0D
   5FDA 0A                 8870 	.db 0x0A
   5FDB 00                 8871 	.db 0x00
                    0335   8872 Fydrip$_str_18$0$0 == .
   5FDC                    8873 __str_18:
   5FDC 66 69 6C 65 2E 77  8874 	.ascii "file.writeline("
        72 69 74 65 6C 69
        6E 65 28
   5FEB 22                 8875 	.db 0x22
   5FEC 63 6F 6E 6E 47 3A  8876 	.ascii "connG:on("
        6F 6E 28
   5FF5 5C                 8877 	.db 0x5C
   5FF6 22                 8878 	.db 0x22
   5FF7 72 65 63 65 69 76  8879 	.ascii "receive"
        65
   5FFE 5C                 8880 	.db 0x5C
   5FFF 22                 8881 	.db 0x22
   6000 2C 20 66 75 6E 63  8882 	.ascii ", function(connG, payloa"
        74 69 6F 6E 28 63
        6F 6E 6E 47 2C 20
        70 61 79 6C 6F 61
   6018 64 29              8883 	.ascii "d)"
   601A 22                 8884 	.db 0x22
   601B 29                 8885 	.ascii ")"
   601C 0D                 8886 	.db 0x0D
   601D 0A                 8887 	.db 0x0A
   601E 00                 8888 	.db 0x00
                    0378   8889 Fydrip$_str_19$0$0 == .
   601F                    8890 __str_19:
   601F 66 69 6C 65 2E 77  8891 	.ascii "file.writeline("
        72 69 74 65 6C 69
        6E 65 28
   602E 22                 8892 	.db 0x22
   602F 70 72 69 6E 74 28  8893 	.ascii "print(string.sub(payload,string.find(payload"
        73 74 72 69 6E 67
        2E 73 75 62 28 70
        61 79 6C 6F 61 64
        2C 73 74 72 69 6E
        67 2E 66 69 6E 64
        28 70 61 79 6C 6F
        61 64
   605B 2C                 8894 	.ascii ","
   605C 5C                 8895 	.db 0x5C
   605D 22                 8896 	.db 0x22
   605E 44 61 74 65 3A     8897 	.ascii "Date:"
   6063 5C                 8898 	.db 0x5C
   6064 22                 8899 	.db 0x22
   6065 29 2B 31 38 2C 73  8900 	.ascii ")+18,string.find(payload,"
        74 72 69 6E 67 2E
        66 69 6E 64 28 70
        61 79 6C 6F 61 64
        2C
   607E 5C                 8901 	.db 0x5C
   607F 22                 8902 	.db 0x22
   6080 44 61 74 65 3A     8903 	.ascii "Date:"
   6085 5C                 8904 	.db 0x5C
   6086 22                 8905 	.db 0x22
   6087 29 2B 32 31 29 2E  8906 	.ascii ")+21).."
        2E
   608E 22                 8907 	.db 0x22
   608F 29                 8908 	.ascii ")"
   6090 0D                 8909 	.db 0x0D
   6091 0A                 8910 	.db 0x0A
   6092 00                 8911 	.db 0x00
                    03EC   8912 Fydrip$_str_20$0$0 == .
   6093                    8913 __str_20:
   6093 66 69 6C 65 2E 77  8914 	.ascii "file.writeline("
        72 69 74 65 6C 69
        6E 65 28
   60A2 22                 8915 	.db 0x22
   60A3 73 74 72 69 6E 67  8916 	.ascii "string.sub(payload,string.find(payload,"
        2E 73 75 62 28 70
        61 79 6C 6F 61 64
        2C 73 74 72 69 6E
        67 2E 66 69 6E 64
        28 70 61 79 6C 6F
        61 64 2C
   60CA 5C                 8917 	.db 0x5C
   60CB 22                 8918 	.db 0x22
   60CC 44 61 74           8919 	.ascii "Dat"
   60CF 65 3A              8920 	.ascii "e:"
   60D1 5C                 8921 	.db 0x5C
   60D2 22                 8922 	.db 0x22
   60D3 29 2B 31 35 2C 73  8923 	.ascii ")+15,string.find(payload,"
        74 72 69 6E 67 2E
        66 69 6E 64 28 70
        61 79 6C 6F 61 64
        2C
   60EC 5C                 8924 	.db 0x5C
   60ED 22                 8925 	.db 0x22
   60EE 44 61 74 65 3A     8926 	.ascii "Date:"
   60F3 5C                 8927 	.db 0x5C
   60F4 22                 8928 	.db 0x22
   60F5 29 2B 31 36 29 2E  8929 	.ascii ")+16).."
        2E
   60FC 22                 8930 	.db 0x22
   60FD 29                 8931 	.ascii ")"
   60FE 0D                 8932 	.db 0x0D
   60FF 0A                 8933 	.db 0x0A
   6100 00                 8934 	.db 0x00
                    045A   8935 Fydrip$_str_21$0$0 == .
   6101                    8936 __str_21:
   6101 66 69 6C 65 2E 77  8937 	.ascii "file.writeline("
        72 69 74 65 6C 69
        6E 65 28
   6110 22                 8938 	.db 0x22
   6111 73 74 72 69 6E 67  8939 	.ascii "string.sub(payload,string.find(payload,"
        2E 73 75 62 28 70
        61 79 6C 6F 61 64
        2C 73 74 72 69 6E
        67 2E 66 69 6E 64
        28 70 61 79 6C 6F
        61 64 2C
   6138 5C                 8940 	.db 0x5C
   6139 22                 8941 	.db 0x22
   613A 44 61 74           8942 	.ascii "Dat"
   613D 65 3A              8943 	.ascii "e:"
   613F 5C                 8944 	.db 0x5C
   6140 22                 8945 	.db 0x22
   6141 29 2B 31 31 2C 73  8946 	.ascii ")+11,string.find(payload,"
        74 72 69 6E 67 2E
        66 69 6E 64 28 70
        61 79 6C 6F 61 64
        2C
   615A 5C                 8947 	.db 0x5C
   615B 22                 8948 	.db 0x22
   615C 44 61 74 65 3A     8949 	.ascii "Date:"
   6161 5C                 8950 	.db 0x5C
   6162 22                 8951 	.db 0x22
   6163 29 2B 31 32 29 2E  8952 	.ascii ")+12).."
        2E
   616A 22                 8953 	.db 0x22
   616B 29                 8954 	.ascii ")"
   616C 0D                 8955 	.db 0x0D
   616D 0A                 8956 	.db 0x0A
   616E 00                 8957 	.db 0x00
                    04C8   8958 Fydrip$_str_22$0$0 == .
   616F                    8959 __str_22:
   616F 66 69 6C 65 2E 77  8960 	.ascii "file.writeline("
        72 69 74 65 6C 69
        6E 65 28
   617E 22                 8961 	.db 0x22
   617F 73 74 72 69 6E 67  8962 	.ascii "string.sub(payload,string.find(payload,"
        2E 73 75 62 28 70
        61 79 6C 6F 61 64
        2C 73 74 72 69 6E
        67 2E 66 69 6E 64
        28 70 61 79 6C 6F
        61 64 2C
   61A6 5C                 8963 	.db 0x5C
   61A7 22                 8964 	.db 0x22
   61A8 44 61 74           8965 	.ascii "Dat"
   61AB 65 3A              8966 	.ascii "e:"
   61AD 5C                 8967 	.db 0x5C
   61AE 22                 8968 	.db 0x22
   61AF 29 2B 32 33 2C 73  8969 	.ascii ")+23,string.find(payload,"
        74 72 69 6E 67 2E
        66 69 6E 64 28 70
        61 79 6C 6F 61 64
        2C
   61C8 5C                 8970 	.db 0x5C
   61C9 22                 8971 	.db 0x22
   61CA 44 61 74 65 3A     8972 	.ascii "Date:"
   61CF 5C                 8973 	.db 0x5C
   61D0 22                 8974 	.db 0x22
   61D1 29 2B 32 34 29 2E  8975 	.ascii ")+24).."
        2E
   61D8 22                 8976 	.db 0x22
   61D9 29                 8977 	.ascii ")"
   61DA 0D                 8978 	.db 0x0D
   61DB 0A                 8979 	.db 0x0A
   61DC 00                 8980 	.db 0x00
                    0536   8981 Fydrip$_str_23$0$0 == .
   61DD                    8982 __str_23:
   61DD 66 69 6C 65 2E 77  8983 	.ascii "file.writeline("
        72 69 74 65 6C 69
        6E 65 28
   61EC 22                 8984 	.db 0x22
   61ED 73 74 72 69 6E 67  8985 	.ascii "string.sub(payload,string.find(payload,"
        2E 73 75 62 28 70
        61 79 6C 6F 61 64
        2C 73 74 72 69 6E
        67 2E 66 69 6E 64
        28 70 61 79 6C 6F
        61 64 2C
   6214 5C                 8986 	.db 0x5C
   6215 22                 8987 	.db 0x22
   6216 44 61 74           8988 	.ascii "Dat"
   6219 65 3A              8989 	.ascii "e:"
   621B 5C                 8990 	.db 0x5C
   621C 22                 8991 	.db 0x22
   621D 29 2B 32 36 2C 73  8992 	.ascii ")+26,string.find(payload,"
        74 72 69 6E 67 2E
        66 69 6E 64 28 70
        61 79 6C 6F 61 64
        2C
   6236 5C                 8993 	.db 0x5C
   6237 22                 8994 	.db 0x22
   6238 44 61 74 65 3A     8995 	.ascii "Date:"
   623D 5C                 8996 	.db 0x5C
   623E 22                 8997 	.db 0x22
   623F 29 2B 32 37 29 2E  8998 	.ascii ")+27).."
        2E
   6246 22                 8999 	.db 0x22
   6247 29                 9000 	.ascii ")"
   6248 0D                 9001 	.db 0x0D
   6249 0A                 9002 	.db 0x0A
   624A 00                 9003 	.db 0x00
                    05A4   9004 Fydrip$_str_24$0$0 == .
   624B                    9005 __str_24:
   624B 66 69 6C 65 2E 77  9006 	.ascii "file.writeline("
        72 69 74 65 6C 69
        6E 65 28
   625A 22                 9007 	.db 0x22
   625B 73 74 72 69 6E 67  9008 	.ascii "string.sub(payload,string.find(payload,"
        2E 73 75 62 28 70
        61 79 6C 6F 61 64
        2C 73 74 72 69 6E
        67 2E 66 69 6E 64
        28 70 61 79 6C 6F
        61 64 2C
   6282 5C                 9009 	.db 0x5C
   6283 22                 9010 	.db 0x22
   6284 44 61 74           9011 	.ascii "Dat"
   6287 65 3A              9012 	.ascii "e:"
   6289 5C                 9013 	.db 0x5C
   628A 22                 9014 	.db 0x22
   628B 29 2B 32 39 2C 73  9015 	.ascii ")+29,string.find(payload,"
        74 72 69 6E 67 2E
        66 69 6E 64 28 70
        61 79 6C 6F 61 64
        2C
   62A4 5C                 9016 	.db 0x5C
   62A5 22                 9017 	.db 0x22
   62A6 44 61 74 65 3A     9018 	.ascii "Date:"
   62AB 5C                 9019 	.db 0x5C
   62AC 22                 9020 	.db 0x22
   62AD 29 2B 33 30 29 2E  9021 	.ascii ")+30).."
        2E
   62B4 22                 9022 	.db 0x22
   62B5 29                 9023 	.ascii ")"
   62B6 0D                 9024 	.db 0x0D
   62B7 0A                 9025 	.db 0x0A
   62B8 00                 9026 	.db 0x00
                    0612   9027 Fydrip$_str_25$0$0 == .
   62B9                    9028 __str_25:
   62B9 66 69 6C 65 2E 77  9029 	.ascii "file.writeline("
        72 69 74 65 6C 69
        6E 65 28
   62C8 22                 9030 	.db 0x22
   62C9 73 74 72 69 6E 67  9031 	.ascii "string.sub(payload,string.find(payload,"
        2E 73 75 62 28 70
        61 79 6C 6F 61 64
        2C 73 74 72 69 6E
        67 2E 66 69 6E 64
        28 70 61 79 6C 6F
        61 64 2C
   62F0 5C                 9032 	.db 0x5C
   62F1 22                 9033 	.db 0x22
   62F2 44 61 74           9034 	.ascii "Dat"
   62F5 65 3A              9035 	.ascii "e:"
   62F7 5C                 9036 	.db 0x5C
   62F8 22                 9037 	.db 0x22
   62F9 29 2B 31 34 2C 73  9038 	.ascii ")+14,string.find(payload,"
        74 72 69 6E 67 2E
        66 69 6E 64 28 70
        61 79 6C 6F 61 64
        2C
   6312 5C                 9039 	.db 0x5C
   6313 22                 9040 	.db 0x22
   6314 44 61 74 65 3A     9041 	.ascii "Date:"
   6319 5C                 9042 	.db 0x5C
   631A 22                 9043 	.db 0x22
   631B 29 2B 31 36 29 2E  9044 	.ascii ")+16).."
        2E
   6322 5C                 9045 	.db 0x5C
   6323 22                 9046 	.db 0x22
   6324 5C                 9047 	.db 0x5C
   6325 5C                 9048 	.db 0x5C
   6326 72                 9049 	.ascii "r"
   6327 5C                 9050 	.db 0x5C
   6328 5C                 9051 	.db 0x5C
   6329 6E                 9052 	.ascii "n"
   632A 5C                 9053 	.db 0x5C
   632B 22                 9054 	.db 0x22
   632C 29                 9055 	.ascii ")"
   632D 22                 9056 	.db 0x22
   632E 29                 9057 	.ascii ")"
   632F 0D                 9058 	.db 0x0D
   6330 0A                 9059 	.db 0x0A
   6331 00                 9060 	.db 0x00
                    068B   9061 Fydrip$_str_26$0$0 == .
   6332                    9062 __str_26:
   6332 66 69 6C 65 2E 77  9063 	.ascii "file.writeline("
        72 69 74 65 6C 69
        6E 65 28
   6341 22                 9064 	.db 0x22
   6342 63 6F 6E 6E 47 3A  9065 	.ascii "connG:close()"
        63 6C 6F 73 65 28
        29
   634F 22                 9066 	.db 0x22
   6350 29                 9067 	.ascii ")"
   6351 0D                 9068 	.db 0x0D
   6352 0A                 9069 	.db 0x0A
   6353 00                 9070 	.db 0x00
                    06AD   9071 Fydrip$_str_27$0$0 == .
   6354                    9072 __str_27:
   6354 66 69 6C 65 2E 77  9073 	.ascii "file.writeline("
        72 69 74 65 6C 69
        6E 65 28
   6363 22                 9074 	.db 0x22
   6364 65 6E 64 29        9075 	.ascii "end)"
   6368 22                 9076 	.db 0x22
   6369 29                 9077 	.ascii ")"
   636A 0D                 9078 	.db 0x0D
   636B 0A                 9079 	.db 0x0A
   636C 00                 9080 	.db 0x00
                    06C6   9081 Fydrip$_str_28$0$0 == .
   636D                    9082 __str_28:
   636D 66 69 6C 65 2E 77  9083 	.ascii "file.writeline([[connG:connect(80,'google.com')]])"
        72 69 74 65 6C 69
        6E 65 28 5B 5B 63
        6F 6E 6E 47 3A 63
        6F 6E 6E 65 63 74
        28 38 30 2C 27 67
        6F 6F 67 6C 65 2E
        63 6F 6D 27 29 5D
        5D 29
   639F 0D                 9084 	.db 0x0D
   63A0 0A                 9085 	.db 0x0A
   63A1 00                 9086 	.db 0x00
                    06FB   9087 Fydrip$_str_29$0$0 == .
   63A2                    9088 __str_29:
   63A2 70 72 69 6E 74 28  9089 	.ascii "print('connG ready"
        27 63 6F 6E 6E 47
        20 72 65 61 64 79
   63B4 5C                 9090 	.db 0x5C
   63B5 72                 9091 	.ascii "r"
   63B6 5C                 9092 	.db 0x5C
   63B7 6E 27 29           9093 	.ascii "n')"
   63BA 0D                 9094 	.db 0x0D
   63BB 0A                 9095 	.db 0x0A
   63BC 00                 9096 	.db 0x00
                    0716   9097 Fydrip$_str_30$0$0 == .
   63BD                    9098 __str_30:
   63BD 70 72 69 6E 74 28  9099 	.ascii "print(wifi.sta.status())"
        77 69 66 69 2E 73
        74 61 2E 73 74 61
        74 75 73 28 29 29
   63D5 0D                 9100 	.db 0x0D
   63D6 0A                 9101 	.db 0x0A
   63D7 00                 9102 	.db 0x00
                    0731   9103 Fydrip$_str_31$0$0 == .
   63D8                    9104 __str_31:
   63D8 67 70 69 6F 2E 77  9105 	.ascii "gpio.write(4, gpio.HIGH)"
        72 69 74 65 28 34
        2C 20 67 70 69 6F
        2E 48 49 47 48 29
   63F0 0D                 9106 	.db 0x0D
   63F1 0A                 9107 	.db 0x0A
   63F2 00                 9108 	.db 0x00
                    074C   9109 Fydrip$_str_32$0$0 == .
   63F3                    9110 __str_32:
   63F3 67 70 69 6F 2E 77  9111 	.ascii "gpio.write(4, gpio.LOW)"
        72 69 74 65 28 34
        2C 20 67 70 69 6F
        2E 4C 4F 57 29
   640A 0D                 9112 	.db 0x0D
   640B 0A                 9113 	.db 0x0A
   640C 00                 9114 	.db 0x00
                    0766   9115 Fydrip$_str_33$0$0 == .
   640D                    9116 __str_33:
   640D 77 69 66 69 2E 73  9117 	.ascii "wifi.sta.connect()"
        74 61 2E 63 6F 6E
        6E 65 63 74 28 29
   641F 0D                 9118 	.db 0x0D
   6420 0A                 9119 	.db 0x0A
   6421 00                 9120 	.db 0x00
                    077B   9121 Fydrip$_str_34$0$0 == .
   6422                    9122 __str_34:
   6422 77 69 66 69 2E 73  9123 	.ascii "wifi.sta.config("
        74 61 2E 63 6F 6E
        66 69 67 28
   6432 22                 9124 	.db 0x22
   6433 48 6F 6D 65 57 69  9125 	.ascii "HomeWifiName"
        66 69 4E 61 6D 65
   643F 22                 9126 	.db 0x22
   6440 2C                 9127 	.ascii ","
   6441 22                 9128 	.db 0x22
   6442 48 6F 6D 65 57 69  9129 	.ascii "HomeWifiKey"
        66 69 4B 65 79
   644D 22                 9130 	.db 0x22
   644E 29 20 20 77 69 66  9131 	.ascii ")  wifi.sta.conn"
        69 2E 73 74 61 2E
        63 6F 6E 6E
   645E 65 63 74 28 29     9132 	.ascii "ect()"
   6463 0D                 9133 	.db 0x0D
   6464 0A                 9134 	.db 0x0A
   6465 00                 9135 	.db 0x00
                    07BF   9136 Fydrip$_str_35$0$0 == .
   6466                    9137 __str_35:
   6466 77 69 66 69 2E 73  9138 	.ascii "wifi.sta.config("
        74 61 2E 63 6F 6E
        66 69 67 28
   6476 22                 9139 	.db 0x22
   6477 53 63 68 6F 6F 6C  9140 	.ascii "SchoolWifiDdownstairs"
        57 69 66 69 44 64
        6F 77 6E 73 74 61
        69 72 73
   648C 22                 9141 	.db 0x22
   648D 2C                 9142 	.ascii ","
   648E 22                 9143 	.db 0x22
   648F 53 63 68 6F 6F 6C  9144 	.ascii "SchoolPassword"
        50 61 73 73 77 6F
        72 64
   649D 22                 9145 	.db 0x22
   649E 29 20 20 77        9146 	.ascii ")  w"
   64A2 69 66 69 2E 73 74  9147 	.ascii "ifi.sta.connect()"
        61 2E 63 6F 6E 6E
        65 63 74 28 29
   64B3 0D                 9148 	.db 0x0D
   64B4 0A                 9149 	.db 0x0A
   64B5 00                 9150 	.db 0x00
                    080F   9151 Fydrip$_str_36$0$0 == .
   64B6                    9152 __str_36:
   64B6 77 69 66 69 2E 73  9153 	.ascii "wifi.sta.config("
        74 61 2E 63 6F 6E
        66 69 67 28
   64C6 22                 9154 	.db 0x22
   64C7 53 63 68 6F 6F 6C  9155 	.ascii "SchoolUpstairs"
        55 70 73 74 61 69
        72 73
   64D5 22                 9156 	.db 0x22
   64D6 2C                 9157 	.ascii ","
   64D7 22                 9158 	.db 0x22
   64D8 53 63 68 6F 6F 6C  9159 	.ascii "SchoolPassword"
        50 61 73 73 77 6F
        72 64
   64E6 22                 9160 	.db 0x22
   64E7 29 20 20 77 69 66  9161 	.ascii ")  wifi.sta"
        69 2E 73 74 61
   64F2 2E 63 6F 6E 6E 65  9162 	.ascii ".connect()"
        63 74 28 29
   64FC 0D                 9163 	.db 0x0D
   64FD 0A                 9164 	.db 0x0A
   64FE 00                 9165 	.db 0x00
                    0858   9166 Fydrip$_str_37$0$0 == .
   64FF                    9167 __str_37:
   64FF 77 69 66 69 2E 73  9168 	.ascii "wifi.sta.config("
        74 61 2E 63 6F 6E
        66 69 67 28
   650F 22                 9169 	.db 0x22
   6510 48 69 6C 6C 73 69  9170 	.ascii "Hillside"
        64 65
   6518 22                 9171 	.db 0x22
   6519 2C                 9172 	.ascii ","
   651A 22                 9173 	.db 0x22
   651B 52 61 6E 64 6F 6D  9174 	.ascii "RandomChars"
        43 68 61 72 73
   6526 22                 9175 	.db 0x22
   6527 29 20 20 77 69 66  9176 	.ascii ")  wifi.sta.connect("
        69 2E 73 74 61 2E
        63 6F 6E 6E 65 63
        74 28
   653B 29                 9177 	.ascii ")"
   653C 0D                 9178 	.db 0x0D
   653D 0A                 9179 	.db 0x0A
   653E 00                 9180 	.db 0x00
                    0898   9181 Fydrip$_str_38$0$0 == .
   653F                    9182 __str_38:
   653F 77 69 66 69 2E 73  9183 	.ascii "wifi.sta.config("
        74 61 2E 63 6F 6E
        66 69 67 28
   654F 22                 9184 	.db 0x22
   6550 43 61 67 65 79 5F  9185 	.ascii "Cagey_HTC"
        48 54 43
   6559 22                 9186 	.db 0x22
   655A 2C                 9187 	.ascii ","
   655B 22                 9188 	.db 0x22
   655C 43 61 67 65 79 31  9189 	.ascii "Cagey1234567890"
        32 33 34 35 36 37
        38 39 30
   656B 22                 9190 	.db 0x22
   656C 29 20 20 77 69 66  9191 	.ascii ")  wifi.sta.con"
        69 2E 73 74 61 2E
        63 6F 6E
   657B 6E 65 63 74 28 29  9192 	.ascii "nect()"
   6581 0D                 9193 	.db 0x0D
   6582 0A                 9194 	.db 0x0A
   6583 00                 9195 	.db 0x00
                    08DD   9196 Fydrip$_str_39$0$0 == .
   6584                    9197 __str_39:
   6584 73 6B 3D 6E 65 74  9198 	.ascii "sk=net.createConnection(net.TCP, 0)"
        2E 63 72 65 61 74
        65 43 6F 6E 6E 65
        63 74 69 6F 6E 28
        6E 65 74 2E 54 43
        50 2C 20 30 29
   65A7 0D                 9199 	.db 0x0D
   65A8 0A                 9200 	.db 0x0A
   65A9 00                 9201 	.db 0x00
                    0903   9202 Fydrip$_str_40$0$0 == .
   65AA                    9203 __str_40:
   65AA 73 6B 3A 6F 6E 28  9204 	.ascii "sk:on("
   65B0 22                 9205 	.db 0x22
   65B1 72 65 63 65 69 76  9206 	.ascii "receive"
        65
   65B8 22                 9207 	.db 0x22
   65B9 2C 20 66 75 6E 63  9208 	.ascii ", function(sck, c) print(c) end )"
        74 69 6F 6E 28 73
        63 6B 2C 20 63 29
        20 70 72 69 6E 74
        28 63 29 20 65 6E
        64 20 29
   65DA 0D                 9209 	.db 0x0D
   65DB 0A                 9210 	.db 0x0A
   65DC 00                 9211 	.db 0x00
                    0936   9212 Fydrip$_str_41$0$0 == .
   65DD                    9213 __str_41:
   65DD 73 6B 3A 63 6F 6E  9214 	.ascii "sk:connect("
        6E 65 63 74 28
   65E8 00                 9215 	.db 0x00
                    0942   9216 Fydrip$_str_42$0$0 == .
   65E9                    9217 __str_42:
   65E9 2C                 9218 	.ascii ","
   65EA 22                 9219 	.db 0x22
   65EB 00                 9220 	.db 0x00
                    0945   9221 Fydrip$_str_43$0$0 == .
   65EC                    9222 __str_43:
   65EC 22                 9223 	.db 0x22
   65ED 29                 9224 	.ascii ")"
   65EE 0D                 9225 	.db 0x0D
   65EF 0A                 9226 	.db 0x0A
   65F0 00                 9227 	.db 0x00
                    094A   9228 Fydrip$_str_44$0$0 == .
   65F1                    9229 __str_44:
   65F1 64 6F 66 69 6C 65  9230 	.ascii "dofile("
        28
   65F8 22                 9231 	.db 0x22
   65F9 67 6F 6F 67 6C 65  9232 	.ascii "googletime.lua"
        74 69 6D 65 2E 6C
        75 61
   6607 22                 9233 	.db 0x22
   6608 29                 9234 	.ascii ")"
   6609 0D                 9235 	.db 0x0D
   660A 0A                 9236 	.db 0x0A
   660B 00                 9237 	.db 0x00
                    0965   9238 Fydrip$_str_45$0$0 == .
   660C                    9239 __str_45:
   660C 2D 2D 20 2A 2A 44  9240 	.ascii "-- **DEBUG** length of C is %d"
        45 42 55 47 2A 2A
        20 6C 65 6E 67 74
        68 20 6F 66 20 43
        20 69 73 20 25 64
   662A 0D                 9241 	.db 0x0D
   662B 0A                 9242 	.db 0x0A
   662C 00                 9243 	.db 0x00
                    0986   9244 Fydrip$_str_46$0$0 == .
   662D                    9245 __str_46:
   662D 0D                 9246 	.db 0x0D
   662E 0A                 9247 	.db 0x0A
   662F 00                 9248 	.db 0x00
                    0989   9249 Fydrip$_str_47$0$0 == .
   6630                    9250 __str_47:
   6630 4A 61 6E           9251 	.ascii "Jan"
   6633 00                 9252 	.db 0x00
                    098D   9253 Fydrip$_str_48$0$0 == .
   6634                    9254 __str_48:
   6634 46 65 62           9255 	.ascii "Feb"
   6637 00                 9256 	.db 0x00
                    0991   9257 Fydrip$_str_49$0$0 == .
   6638                    9258 __str_49:
   6638 4D 61 72           9259 	.ascii "Mar"
   663B 00                 9260 	.db 0x00
                    0995   9261 Fydrip$_str_50$0$0 == .
   663C                    9262 __str_50:
   663C 41 70 72           9263 	.ascii "Apr"
   663F 00                 9264 	.db 0x00
                    0999   9265 Fydrip$_str_51$0$0 == .
   6640                    9266 __str_51:
   6640 4D 61 79           9267 	.ascii "May"
   6643 00                 9268 	.db 0x00
                    099D   9269 Fydrip$_str_52$0$0 == .
   6644                    9270 __str_52:
   6644 4A 75 6E           9271 	.ascii "Jun"
   6647 00                 9272 	.db 0x00
                    09A1   9273 Fydrip$_str_53$0$0 == .
   6648                    9274 __str_53:
   6648 4A 75 6C           9275 	.ascii "Jul"
   664B 00                 9276 	.db 0x00
                    09A5   9277 Fydrip$_str_54$0$0 == .
   664C                    9278 __str_54:
   664C 41 75 67           9279 	.ascii "Aug"
   664F 00                 9280 	.db 0x00
                    09A9   9281 Fydrip$_str_55$0$0 == .
   6650                    9282 __str_55:
   6650 53 65 70           9283 	.ascii "Sep"
   6653 00                 9284 	.db 0x00
                    09AD   9285 Fydrip$_str_56$0$0 == .
   6654                    9286 __str_56:
   6654 4F 63 74           9287 	.ascii "Oct"
   6657 00                 9288 	.db 0x00
                    09B1   9289 Fydrip$_str_57$0$0 == .
   6658                    9290 __str_57:
   6658 4E 6F 76           9291 	.ascii "Nov"
   665B 00                 9292 	.db 0x00
                    09B5   9293 Fydrip$_str_58$0$0 == .
   665C                    9294 __str_58:
   665C 44 65 63           9295 	.ascii "Dec"
   665F 00                 9296 	.db 0x00
                    09B9   9297 Fydrip$_str_59$0$0 == .
   6660                    9298 __str_59:
   6660 73 6B 3A 63 6C 6F  9299 	.ascii "sk:close()"
        73 65 28 29
   666A 0D                 9300 	.db 0x0D
   666B 0A                 9301 	.db 0x0A
   666C 00                 9302 	.db 0x00
                    09C6   9303 Fydrip$_str_60$0$0 == .
   666D                    9304 __str_60:
   666D 6E 6F 64 65 2E 64  9305 	.ascii "node.dsleep(270000000)"
        73 6C 65 65 70 28
        32 37 30 30 30 30
        30 30 30 29
   6683 0D                 9306 	.db 0x0D
   6684 0A                 9307 	.db 0x0A
   6685 00                 9308 	.db 0x00
                    09DF   9309 Fydrip$_str_62$0$0 == .
   6686                    9310 __str_62:
   6686 2D 2D 20 2A 2A 44  9311 	.ascii "-- **DEBUG** iv is %s"
        45 42 55 47 2A 2A
        20 69 76 20 69 73
        20 25 73
   669B 0D                 9312 	.db 0x0D
   669C 0A                 9313 	.db 0x0A
   669D 00                 9314 	.db 0x00
                    09F7   9315 Fydrip$_str_63$0$0 == .
   669E                    9316 __str_63:
   669E 25 73 20 25 68 68  9317 	.ascii "%s %hhu %s %lu %lu %d %d 100 -6.127100,53.241300"
        75 20 25 73 20 25
        6C 75 20 25 6C 75
        20 25 64 20 25 64
        20 31 30 30 20 2D
        36 2E 31 32 37 31
        30 30 2C 35 33 2E
        32 34 31 33 30 30
   66CE 00                 9318 	.db 0x00
                    0A28   9319 Fydrip$_str_64$0$0 == .
   66CF                    9320 __str_64:
   66CF 73 6B 3A 73 65 6E  9321 	.ascii "sk:send("
        64 28
   66D7 22                 9322 	.db 0x22
   66D8 79 44 72 69 70 28  9323 	.ascii "yDrip(AES): "
        41 45 53 29 3A 20
   66E4 00                 9324 	.db 0x00
                    0A3E   9325 Fydrip$_str_65$0$0 == .
   66E5                    9326 __str_65:
   66E5 25 30 32 78        9327 	.ascii "%02x"
   66E9 00                 9328 	.db 0x00
                    0A43   9329 Fydrip$_str_66$0$0 == .
   66EA                    9330 __str_66:
   66EA 20                 9331 	.ascii " "
   66EB 00                 9332 	.db 0x00
                    0A45   9333 Fydrip$_str_67$0$0 == .
   66EC                    9334 __str_67:
   66EC 73 6B 3A 73 65 6E  9335 	.ascii "sk:send("
        64 28
   66F4 22                 9336 	.db 0x22
   66F5 79 44 72 69 70 3A  9337 	.ascii "yDrip: "
        20
   66FC 00                 9338 	.db 0x00
                    0A56   9339 Fydrip$_str_68$0$0 == .
   66FD                    9340 __str_68:
   66FD 5C                 9341 	.db 0x5C
   66FE 72                 9342 	.ascii "r"
   66FF 5C                 9343 	.db 0x5C
   6700 6E                 9344 	.ascii "n"
   6701 22                 9345 	.db 0x22
   6702 29                 9346 	.ascii ")"
   6703 0D                 9347 	.db 0x0D
   6704 0A                 9348 	.db 0x0A
   6705 00                 9349 	.db 0x00
                    0A5F   9350 Fydrip$_str_70$0$0 == .
   6706                    9351 __str_70:
   6706 36 46 35 59 50     9352 	.ascii "6F5YP"
   670B 00                 9353 	.db 0x00
                    0A65   9354 Fydrip$_str_71$0$0 == .
   670C                    9355 __str_71:
   670C 52 45 50 4C 41 43  9356 	.ascii "REPLACEME.DuckDNS.org"
        45 4D 45 2E 44 75
        63 6B 44 4E 53 2E
        6F 72 67
   6721 00                 9357 	.db 0x00
                    0A7B   9358 Fydrip$_str_72$0$0 == .
   6722                    9359 __str_72:
   6722 31 37 36 31 31     9360 	.ascii "17611"
   6727 00                 9361 	.db 0x00
                    0A81   9362 Fydrip$_str_73$0$0 == .
   6728                    9363 __str_73:
   6728 47 47 79 44 72 69  9364 	.ascii "GGyDrip"
        70
   672F 00                 9365 	.db 0x00
                           9366 	.area XINIT   (CODE)
                    0000   9367 Fydrip$__xinit_transmitter_id$0$0 == .
   69D2                    9368 __xinit__transmitter_id:
   69D2 36 46 35 59 50     9369 	.ascii "6F5YP"
   69D7 00                 9370 	.db 0x00
                    0006   9371 Fydrip$__xinit_dexie_host_address$0$0 == .
   69D8                    9372 __xinit__dexie_host_address:
   69D8 52 45 50 4C 41 43  9373 	.ascii "REPLACEME.DuckDNS.org"
        45 4D 45 2E 44 75
        63 6B 44 4E 53 2E
        6F 72 67
   69ED 00                 9374 	.db 0x00
                    001C   9375 Fydrip$__xinit_dexie_host_port$0$0 == .
   69EE                    9376 __xinit__dexie_host_port:
   69EE 31 37 36 31 31     9377 	.ascii "17611"
   69F3 00                 9378 	.db 0x00
                    0022   9379 Fydrip$__xinit_wixFone_ID$0$0 == .
   69F4                    9380 __xinit__wixFone_ID:
   69F4 47 47 79 44 72 69  9381 	.ascii "GGyDrip"
        70
   69FB 00                 9382 	.db 0x00
                    002A   9383 Fydrip$__xinit_key$0$0 == .
   69FC                    9384 __xinit__key:
   69FC 4D                 9385 	.db #0x4D	; 77	'M'
   69FD 79                 9386 	.db #0x79	; 121	'y'
   69FE 79                 9387 	.db #0x79	; 121	'y'
   69FF 44                 9388 	.db #0x44	; 68	'D'
   6A00 72                 9389 	.db #0x72	; 114	'r'
   6A01 7C                 9390 	.db #0x7C	; 124
   6A02 50                 9391 	.db #0x50	; 80	'P'
   6A03 26                 9392 	.db #0x26	; 38
   6A04 41                 9393 	.db #0x41	; 65	'A'
   6A05 45                 9394 	.db #0x45	; 69	'E'
   6A06 53                 9395 	.db #0x53	; 83	'S'
   6A07 72                 9396 	.db #0x72	; 114	'r'
   6A08 40                 9397 	.db #0x40	; 64
   6A09 5B                 9398 	.db #0x5B	; 91
   6A0A 4B                 9399 	.db #0x4B	; 75	'K'
   6A0B 21                 9400 	.db #0x21	; 33
                    003A   9401 Fydrip$__xinit_start_channel$0$0 == .
   6A0C                    9402 __xinit__start_channel:
   6A0C 00                 9403 	.db #0x00	;  0
                    003B   9404 Fydrip$__xinit_defaultfOffset$0$0 == .
   6A0D                    9405 __xinit__defaultfOffset:
   6A0D CE                 9406 	.db #0xCE	; -50
   6A0E D5                 9407 	.db #0xD5	; -43
   6A0F E6                 9408 	.db #0xE6	; -26
   6A10 E5                 9409 	.db #0xE5	; -27
                    003F   9410 Fydrip$__xinit_PM2_BUF$0$0 == .
   6A11                    9411 __xinit__PM2_BUF:
   6A11 06                 9412 	.db #0x06	; 6
   6A12 06                 9413 	.db #0x06	; 6
   6A13 06                 9414 	.db #0x06	; 6
   6A14 06                 9415 	.db #0x06	; 6
   6A15 06                 9416 	.db #0x06	; 6
   6A16 06                 9417 	.db #0x06	; 6
   6A17 04                 9418 	.db #0x04	; 4
                    0046   9419 Fydrip$__xinit_dmaDesc$0$0 == .
   6A18                    9420 __xinit__dmaDesc:
   6A18 00                 9421 	.db #0x00	; 0
   6A19 00                 9422 	.db #0x00	; 0
   6A1A DF                 9423 	.db #0xDF	; 223
   6A1B BE                 9424 	.db #0xBE	; 190
   6A1C 00                 9425 	.db #0x00	; 0
   6A1D 07                 9426 	.db #0x07	; 7
   6A1E 20                 9427 	.db #0x20	; 32
   6A1F 42                 9428 	.db #0x42	; 66	'B'
                    004E   9429 Fydrip$__xinit_AT_TIMEOUT$0$0 == .
   6A20                    9430 __xinit__AT_TIMEOUT:
   6A20 01                 9431 	.db #0x01	; 1
                    004F   9432 Fydrip$__xinit_defaultWaitTime$0$0 == .
   6A21                    9433 __xinit__defaultWaitTime:
   6A21 F4 01 00 00        9434 	.byte #0xF4,#0x01,#0x00,#0x00	; 500
                    0053   9435 Fydrip$__xinit_SrcNameTable$0$0 == .
   6A25                    9436 __xinit__SrcNameTable:
   6A25 30                 9437 	.db #0x30	;  48	'0'
   6A26 31                 9438 	.db #0x31	;  49	'1'
   6A27 32                 9439 	.db #0x32	;  50	'2'
   6A28 33                 9440 	.db #0x33	;  51	'3'
   6A29 34                 9441 	.db #0x34	;  52	'4'
   6A2A 35                 9442 	.db #0x35	;  53	'5'
   6A2B 36                 9443 	.db #0x36	;  54	'6'
   6A2C 37                 9444 	.db #0x37	;  55	'7'
   6A2D 38                 9445 	.db #0x38	;  56	'8'
   6A2E 39                 9446 	.db #0x39	;  57	'9'
   6A2F 41                 9447 	.db #0x41	;  65	'A'
   6A30 42                 9448 	.db #0x42	;  66	'B'
   6A31 43                 9449 	.db #0x43	;  67	'C'
   6A32 44                 9450 	.db #0x44	;  68	'D'
   6A33 45                 9451 	.db #0x45	;  69	'E'
   6A34 46                 9452 	.db #0x46	;  70	'F'
   6A35 47                 9453 	.db #0x47	;  71	'G'
   6A36 48                 9454 	.db #0x48	;  72	'H'
   6A37 4A                 9455 	.db #0x4A	;  74	'J'
   6A38 4B                 9456 	.db #0x4B	;  75	'K'
   6A39 4C                 9457 	.db #0x4C	;  76	'L'
   6A3A 4D                 9458 	.db #0x4D	;  77	'M'
   6A3B 4E                 9459 	.db #0x4E	;  78	'N'
   6A3C 50                 9460 	.db #0x50	;  80	'P'
   6A3D 51                 9461 	.db #0x51	;  81	'Q'
   6A3E 52                 9462 	.db #0x52	;  82	'R'
   6A3F 53                 9463 	.db #0x53	;  83	'S'
   6A40 54                 9464 	.db #0x54	;  84	'T'
   6A41 55                 9465 	.db #0x55	;  85	'U'
   6A42 57                 9466 	.db #0x57	;  87	'W'
   6A43 58                 9467 	.db #0x58	;  88	'X'
   6A44 59                 9468 	.db #0x59	;  89	'Y'
                           9469 	.area CABS    (ABS,CODE)
